AX51 MACRO ASSEMBLER  MESSVERST_NEW                                                         01/07/24 00:14:01 PAGE     1


MACRO ASSEMBLER AX51 V3.15.3.0
OBJECT MODULE PLACED IN .\src\Messverst_new.OBJ
ASSEMBLER INVOKED BY: c:\SiliconLabs\SimplicityStudio\v4\developer\toolchains\keil_8051\9.60\BIN\AX51.exe D:\Yelin\Ampli
                      fier_assembly\src\Messverst_new.asm ERRORPRINT SET(SMALL,SILABS_STARTUP=1) DEBUG MACRO NOMOD51 INC
                      DIR(C:/SiliconLabs/SimplicityStudio/v4/developer/sdks/8051/v4.1.7//Device/shared/si8051Base;C:/Sil
                      iconLabs/SimplicityStudio/v4/developer/sdks/8051/v4.1.7//Device/EFM8BB3/inc) PRINT(.\src\Messverst
                      _new.lst) COND SYMBOLS PAGEWIDTH(120) PAGELENGTH(65) OBJECT(.\src\Messverst_new.OBJ) 

LOC    OBJ             LINE     SOURCE

                          1     
                          2     ;$include (SI_EFM8BB3_Defs.inc)
                    +1    3     ;------------------------------------------------------------------------------
                    +1    4     ; Copyright 2014 Silicon Laboratories, Inc.
                    +1    5     ; All rights reserved. This program and the accompanying materials
                    +1    6     ; are made available under the terms of the Silicon Laboratories End User
                    +1    7     ; License Agreement which accompanies this distribution, and is available at
                    +1    8     ; http://developer.silabs.com/legal/version/v11/Silicon_Labs_Software_License_Agreement.
                               txt
                    +1    9     ; Original content and implementation provided by Silicon Laboratories.
                    +1   10     ;------------------------------------------------------------------------------
                    +1   11     ;Supported Devices:
                    +1   12     ;  EFM8BB31F16G
                    +1   13     ;  EFM8BB31F16G
                    +1   14     ;  EFM8BB31F16G
                    +1   15     ;  EFM8BB31F16G
                    +1   16     ;  EFM8BB31F16I
                    +1   17     ;  EFM8BB31F16I
                    +1   18     ;  EFM8BB31F16I
                    +1   19     ;  EFM8BB31F16I
                    +1   20     ;  EFM8BB31F32G
                    +1   21     ;  EFM8BB31F32G
                    +1   22     ;  EFM8BB31F32G
                    +1   23     ;  EFM8BB31F32G
                    +1   24     ;  EFM8BB31F32I
                    +1   25     ;  EFM8BB31F32I
                    +1   26     ;  EFM8BB31F32I
                    +1   27     ;  EFM8BB31F32I
                    +1   28     ;  EFM8BB31F64G
                    +1   29     ;  EFM8BB31F64G
                    +1   30     ;  EFM8BB31F64G
                    +1   31     ;  EFM8BB31F64G
                    +1   32     ;  EFM8BB31F64I
                    +1   33     ;  EFM8BB31F64I
                    +1   34     ;  EFM8BB31F64I
                    +1   35     ;  EFM8BB31F64I
                    +1   36     
                    +1   37     ;-----------------------------------------------------------------------------
                    +1   38     ; Register Definitions
                    +1   39     ;-----------------------------------------------------------------------------
 00E0               +1   40     ACC       DATA 0E0H; Accumulator                              
 00B6               +1   41     ADC0ASAH  DATA 0B6H; ADC0 Autoscan Start Address High Byte    
 00B5               +1   42     ADC0ASAL  DATA 0B5H; ADC0 Autoscan Start Address Low Byte     
 00A1               +1   43     ADC0ASCF  DATA 0A1H; ADC0 Autoscan Configuration              
 00C7               +1   44     ADC0ASCT  DATA 0C7H; ADC0 Autoscan Output Count               
 00BC               +1   45     ADC0CF0   DATA 0BCH; ADC0 Configuration                       
 00B9               +1   46     ADC0CF1   DATA 0B9H; ADC0 Configuration                       
 00DF               +1   47     ADC0CF2   DATA 0DFH; ADC0 Power Control                       
 00E8               +1   48     ADC0CN0   DATA 0E8H; ADC0 Control 0                           
 00B2               +1   49     ADC0CN1   DATA 0B2H; ADC0 Control 1                           
 00B3               +1   50     ADC0CN2   DATA 0B3H; ADC0 Control 2                           
AX51 MACRO ASSEMBLER  MESSVERST_NEW                                                         01/07/24 00:14:01 PAGE     2

 00C4               +1   51     ADC0GTH   DATA 0C4H; ADC0 Greater-Than High Byte              
 00C3               +1   52     ADC0GTL   DATA 0C3H; ADC0 Greater-Than Low Byte               
 00BE               +1   53     ADC0H     DATA 0BEH; ADC0 Data Word High Byte                 
 00BD               +1   54     ADC0L     DATA 0BDH; ADC0 Data Word Low Byte                  
 00C6               +1   55     ADC0LTH   DATA 0C6H; ADC0 Less-Than High Byte                 
 00C5               +1   56     ADC0LTL   DATA 0C5H; ADC0 Less-Than Low Byte                  
 00BB               +1   57     ADC0MX    DATA 0BBH; ADC0 Multiplexer Selection               
 00F0               +1   58     B         DATA 0F0H; B Register                               
 008E               +1   59     CKCON0    DATA 08EH; Clock Control 0                          
 00A6               +1   60     CKCON1    DATA 0A6H; Clock Control 1                          
 00C6               +1   61     CLEN0     DATA 0C6H; Configurable Logic Enable 0              
 00C7               +1   62     CLIE0     DATA 0C7H; Configurable Logic Interrupt Enable 0    
 00E8               +1   63     CLIF0     DATA 0E8H; Configurable Logic Interrupt Flag 0      
 00A9               +1   64     CLKSEL    DATA 0A9H; Clock Select                             
 00D1               +1   65     CLOUT0    DATA 0D1H; Configurable Logic Output 0              
 00B1               +1   66     CLU0CF    DATA 0B1H; Configurable Logic Unit 0 Configuration  
 00AF               +1   67     CLU0FN    DATA 0AFH; Configurable Logic Unit 0 Function Select
 0084               +1   68     CLU0MX    DATA 084H; Configurable Logic Unit 0 Multiplexer    
 00B3               +1   69     CLU1CF    DATA 0B3H; Configurable Logic Unit 1 Configuration  
 00B2               +1   70     CLU1FN    DATA 0B2H; Configurable Logic Unit 1 Function Select
 0085               +1   71     CLU1MX    DATA 085H; Configurable Logic Unit 1 Multiplexer    
 00B6               +1   72     CLU2CF    DATA 0B6H; Configurable Logic Unit 2 Configuration  
 00B5               +1   73     CLU2FN    DATA 0B5H; Configurable Logic Unit 2 Function Select
 0091               +1   74     CLU2MX    DATA 091H; Configurable Logic Unit 2 Multiplexer    
 00BF               +1   75     CLU3CF    DATA 0BFH; Configurable Logic Unit 3 Configuration  
 00BE               +1   76     CLU3FN    DATA 0BEH; Configurable Logic Unit 3 Function Select
 00AE               +1   77     CLU3MX    DATA 0AEH; Configurable Logic Unit 3 Multiplexer    
 009B               +1   78     CMP0CN0   DATA 09BH; Comparator 0 Control 0                   
 0099               +1   79     CMP0CN1   DATA 099H; Comparator 0 Control 1                   
 009D               +1   80     CMP0MD    DATA 09DH; Comparator 0 Mode                        
 009F               +1   81     CMP0MX    DATA 09FH; Comparator 0 Multiplexer Selection       
 00BF               +1   82     CMP1CN0   DATA 0BFH; Comparator 1 Control 0                   
 00AC               +1   83     CMP1CN1   DATA 0ACH; Comparator 1 Control 1                   
 00AB               +1   84     CMP1MD    DATA 0ABH; Comparator 1 Mode                        
 00AA               +1   85     CMP1MX    DATA 0AAH; Comparator 1 Multiplexer Selection       
 00CE               +1   86     CRC0CN0   DATA 0CEH; CRC0 Control 0                           
 0086               +1   87     CRC0CN1   DATA 086H; CRC0 Control 1                           
 00D3               +1   88     CRC0CNT   DATA 0D3H; CRC0 Automatic Flash Sector Count        
 00CB               +1   89     CRC0DAT   DATA 0CBH; CRC0 Data Output                         
 00CF               +1   90     CRC0FLIP  DATA 0CFH; CRC0 Bit Flip                            
 00CA               +1   91     CRC0IN    DATA 0CAH; CRC0 Data Input                          
 00D2               +1   92     CRC0ST    DATA 0D2H; CRC0 Automatic Flash Sector Start        
 0091               +1   93     DAC0CF0   DATA 091H; DAC0 Configuration 0                     
 0092               +1   94     DAC0CF1   DATA 092H; DAC0 Configuration 1                     
 0085               +1   95     DAC0H     DATA 085H; DAC0 Data Word High Byte                 
 0084               +1   96     DAC0L     DATA 084H; DAC0 Data Word Low Byte                  
 0093               +1   97     DAC1CF0   DATA 093H; DAC1 Configuration 0                     
 0094               +1   98     DAC1CF1   DATA 094H; DAC1 Configuration 1                     
 008A               +1   99     DAC1H     DATA 08AH; DAC1 Data Word High Byte                 
 0089               +1  100     DAC1L     DATA 089H; DAC1 Data Word Low Byte                  
 0095               +1  101     DAC2CF0   DATA 095H; DAC2 Configuration 0                     
 0096               +1  102     DAC2CF1   DATA 096H; DAC2 Configuration 1                     
 008C               +1  103     DAC2H     DATA 08CH; DAC2 Data Word High Byte                 
 008B               +1  104     DAC2L     DATA 08BH; DAC2 Data Word Low Byte                  
 009A               +1  105     DAC3CF0   DATA 09AH; DAC3 Configuration 0                     
 009C               +1  106     DAC3CF1   DATA 09CH; DAC3 Configuration 1                     
 008E               +1  107     DAC3H     DATA 08EH; DAC3 Data Word High Byte                 
 008D               +1  108     DAC3L     DATA 08DH; DAC3 Data Word Low Byte                  
 0088               +1  109     DACGCF0   DATA 088H; DAC Global Configuration 0               
 0098               +1  110     DACGCF1   DATA 098H; DAC Global Configuration 1               
 00A2               +1  111     DACGCF2   DATA 0A2H; DAC Global Configuration 2               
 00AD               +1  112     DERIVID   DATA 0ADH; Derivative Identification                
 00B5               +1  113     DEVICEID  DATA 0B5H; Device Identification                    
AX51 MACRO ASSEMBLER  MESSVERST_NEW                                                         01/07/24 00:14:01 PAGE     3

 0083               +1  114     DPH       DATA 083H; Data Pointer High                        
 0082               +1  115     DPL       DATA 082H; Data Pointer Low                         
 00E6               +1  116     EIE1      DATA 0E6H; Extended Interrupt Enable 1              
 00F3               +1  117     EIE2      DATA 0F3H; Extended Interrupt Enable 2              
 00BB               +1  118     EIP1      DATA 0BBH; Extended Interrupt Priority 1 Low        
 00EE               +1  119     EIP1H     DATA 0EEH; Extended Interrupt Priority 1 High       
 00ED               +1  120     EIP2      DATA 0EDH; Extended Interrupt Priority 2            
 00F6               +1  121     EIP2H     DATA 0F6H; Extended Interrupt Priority 2 High       
 00E7               +1  122     EMI0CN    DATA 0E7H; External Memory Interface Control        
 00B7               +1  123     FLKEY     DATA 0B7H; Flash Lock and Key                       
 00C7               +1  124     HFO0CAL   DATA 0C7H; High Frequency Oscillator 0 Calibration  
 00D6               +1  125     HFO1CAL   DATA 0D6H; High Frequency Oscillator 1 Calibration  
 00EF               +1  126     HFOCN     DATA 0EFH; High Frequency Oscillator Control        
 00FF               +1  127     I2C0ADM   DATA 0FFH; I2C0 Slave Address Mask                  
 00BA               +1  128     I2C0CN0   DATA 0BAH; I2C0 Control                             
 00BC               +1  129     I2C0DIN   DATA 0BCH; I2C0 Received Data                       
 00BB               +1  130     I2C0DOUT  DATA 0BBH; I2C0 Transmit Data                       
 00AD               +1  131     I2C0FCN0  DATA 0ADH; I2C0 FIFO Control 0                      
 00AB               +1  132     I2C0FCN1  DATA 0ABH; I2C0 FIFO Control 1                      
 00F5               +1  133     I2C0FCT   DATA 0F5H; I2C0 FIFO Count                          
 00BD               +1  134     I2C0SLAD  DATA 0BDH; I2C0 Slave Address                       
 00B9               +1  135     I2C0STAT  DATA 0B9H; I2C0 Status                              
 00A8               +1  136     IE        DATA 0A8H; Interrupt Enable                         
 00B8               +1  137     IP        DATA 0B8H; Interrupt Priority                       
 00F2               +1  138     IPH       DATA 0F2H; Interrupt Priority High                  
 00E4               +1  139     IT01CF    DATA 0E4H; INT0/INT1 Configuration                  
 00B1               +1  140     LFO0CN    DATA 0B1H; Low Frequency Oscillator Control         
 0080               +1  141     P0        DATA 080H; Port 0 Pin Latch                         
 00FE               +1  142     P0MASK    DATA 0FEH; Port 0 Mask                              
 00FD               +1  143     P0MAT     DATA 0FDH; Port 0 Match                             
 00F1               +1  144     P0MDIN    DATA 0F1H; Port 0 Input Mode                        
 00A4               +1  145     P0MDOUT   DATA 0A4H; Port 0 Output Mode                       
 00D4               +1  146     P0SKIP    DATA 0D4H; Port 0 Skip                              
 0090               +1  147     P1        DATA 090H; Port 1 Pin Latch                         
 00EE               +1  148     P1MASK    DATA 0EEH; Port 1 Mask                              
 00ED               +1  149     P1MAT     DATA 0EDH; Port 1 Match                             
 00F2               +1  150     P1MDIN    DATA 0F2H; Port 1 Input Mode                        
 00A5               +1  151     P1MDOUT   DATA 0A5H; Port 1 Output Mode                       
 00D5               +1  152     P1SKIP    DATA 0D5H; Port 1 Skip                              
 00A0               +1  153     P2        DATA 0A0H; Port 2 Pin Latch                         
 00FC               +1  154     P2MASK    DATA 0FCH; Port 2 Mask                              
 00FB               +1  155     P2MAT     DATA 0FBH; Port 2 Match                             
 00F3               +1  156     P2MDIN    DATA 0F3H; Port 2 Input Mode                        
 00A6               +1  157     P2MDOUT   DATA 0A6H; Port 2 Output Mode                       
 00CC               +1  158     P2SKIP    DATA 0CCH; Port 2 Skip                              
 00B0               +1  159     P3        DATA 0B0H; Port 3 Pin Latch                         
 00F4               +1  160     P3MDIN    DATA 0F4H; Port 3 Input Mode                        
 009C               +1  161     P3MDOUT   DATA 09CH; Port 3 Output Mode                       
 009E               +1  162     PCA0CENT  DATA 09EH; PCA Center Alignment Enable              
 009C               +1  163     PCA0CLR   DATA 09CH; PCA Comparator Clear Control             
 00D8               +1  164     PCA0CN0   DATA 0D8H; PCA Control                              
 00FC               +1  165     PCA0CPH0  DATA 0FCH; PCA Channel 0 Capture Module High Byte   
 00EA               +1  166     PCA0CPH1  DATA 0EAH; PCA Channel 1 Capture Module High Byte   
 00EC               +1  167     PCA0CPH2  DATA 0ECH; PCA Channel 2 Capture Module High Byte   
 00F5               +1  168     PCA0CPH3  DATA 0F5H; PCA Channel 3 Capture Module High Byte   
 0085               +1  169     PCA0CPH4  DATA 085H; PCA Channel 4 Capture Module High Byte   
 00DE               +1  170     PCA0CPH5  DATA 0DEH; PCA Channel 5 Capture Module High Byte   
 00FB               +1  171     PCA0CPL0  DATA 0FBH; PCA Channel 0 Capture Module Low Byte    
 00E9               +1  172     PCA0CPL1  DATA 0E9H; PCA Channel 1 Capture Module Low Byte    
 00EB               +1  173     PCA0CPL2  DATA 0EBH; PCA Channel 2 Capture Module Low Byte    
 00F4               +1  174     PCA0CPL3  DATA 0F4H; PCA Channel 3 Capture Module Low Byte    
 0084               +1  175     PCA0CPL4  DATA 084H; PCA Channel 4 Capture Module Low Byte    
 00DD               +1  176     PCA0CPL5  DATA 0DDH; PCA Channel 5 Capture Module Low Byte    
AX51 MACRO ASSEMBLER  MESSVERST_NEW                                                         01/07/24 00:14:01 PAGE     4

 00DA               +1  177     PCA0CPM0  DATA 0DAH; PCA Channel 0 Capture/Compare Mode       
 00DB               +1  178     PCA0CPM1  DATA 0DBH; PCA Channel 1 Capture/Compare Mode       
 00DC               +1  179     PCA0CPM2  DATA 0DCH; PCA Channel 2 Capture/Compare Mode       
 00AE               +1  180     PCA0CPM3  DATA 0AEH; PCA Channel 3 Capture/Compare Mode       
 00AF               +1  181     PCA0CPM4  DATA 0AFH; PCA Channel 4 Capture/Compare Mode       
 00CC               +1  182     PCA0CPM5  DATA 0CCH; PCA Channel 5 Capture/Compare Mode       
 00FA               +1  183     PCA0H     DATA 0FAH; PCA Counter/Timer High Byte              
 00F9               +1  184     PCA0L     DATA 0F9H; PCA Counter/Timer Low Byte               
 00D9               +1  185     PCA0MD    DATA 0D9H; PCA Mode                                 
 0096               +1  186     PCA0POL   DATA 096H; PCA Output Polarity                      
 00F7               +1  187     PCA0PWM   DATA 0F7H; PCA PWM Configuration                    
 0087               +1  188     PCON0     DATA 087H; Power Control                            
 00CD               +1  189     PCON1     DATA 0CDH; Power Control 1                          
 00C1               +1  190     PFE0CN    DATA 0C1H; Prefetch Engine Control                  
 00F6               +1  191     PRTDRV    DATA 0F6H; Port Drive Strength                      
 008F               +1  192     PSCTL     DATA 08FH; Program Store Control                    
 00AA               +1  193     PSTAT0    DATA 0AAH; PMU Status 0                             
 00D0               +1  194     PSW       DATA 0D0H; Program Status Word                      
 00D1               +1  195     REF0CN    DATA 0D1H; Voltage Reference Control                
 00C9               +1  196     REG0CN    DATA 0C9H; Voltage Regulator 0 Control              
 00B6               +1  197     REVID     DATA 0B6H; Revision Identifcation                   
 00EF               +1  198     RSTSRC    DATA 0EFH; Reset Source                             
 0094               +1  199     SBCON1    DATA 094H; UART1 Baud Rate Generator Control        
 0096               +1  200     SBRLH1    DATA 096H; UART1 Baud Rate Generator High Byte      
 0095               +1  201     SBRLL1    DATA 095H; UART1 Baud Rate Generator Low Byte       
 0099               +1  202     SBUF0     DATA 099H; UART0 Serial Port Data Buffer            
 0092               +1  203     SBUF1     DATA 092H; UART1 Serial Port Data Buffer            
 0098               +1  204     SCON0     DATA 098H; UART0 Serial Port Control                
 00C8               +1  205     SCON1     DATA 0C8H; UART1 Serial Port Control                
 00A7               +1  206     SFRPAGE   DATA 0A7H; SFR Page                                 
 00BC               +1  207     SFRPGCN   DATA 0BCH; SFR Page Control                         
 00D7               +1  208     SFRSTACK  DATA 0D7H; SFR Page Stack                           
 00D6               +1  209     SMB0ADM   DATA 0D6H; SMBus 0 Slave Address Mask               
 00D7               +1  210     SMB0ADR   DATA 0D7H; SMBus 0 Slave Address                    
 00C1               +1  211     SMB0CF    DATA 0C1H; SMBus 0 Configuration                    
 00C0               +1  212     SMB0CN0   DATA 0C0H; SMBus 0 Control                          
 00C2               +1  213     SMB0DAT   DATA 0C2H; SMBus 0 Data                             
 00C3               +1  214     SMB0FCN0  DATA 0C3H; SMBus 0 FIFO Control 0                   
 00C4               +1  215     SMB0FCN1  DATA 0C4H; SMBus 0 FIFO Control 1                   
 00EF               +1  216     SMB0FCT   DATA 0EFH; SMBus 0 FIFO Count                       
 00C5               +1  217     SMB0RXLN  DATA 0C5H; SMBus 0 Receive Length Counter           
 00AC               +1  218     SMB0TC    DATA 0ACH; SMBus 0 Timing and Pin Control           
 0093               +1  219     SMOD1     DATA 093H; UART1 Mode                               
 0081               +1  220     SP        DATA 081H; Stack Pointer                            
 00A1               +1  221     SPI0CFG   DATA 0A1H; SPI0 Configuration                       
 00A2               +1  222     SPI0CKR   DATA 0A2H; SPI0 Clock Rate                          
 00F8               +1  223     SPI0CN0   DATA 0F8H; SPI0 Control                             
 00A3               +1  224     SPI0DAT   DATA 0A3H; SPI0 Data                                
 009A               +1  225     SPI0FCN0  DATA 09AH; SPI0 FIFO Control 0                      
 009B               +1  226     SPI0FCN1  DATA 09BH; SPI0 FIFO Control 1                      
 00F7               +1  227     SPI0FCT   DATA 0F7H; SPI0 FIFO Count                          
 00DF               +1  228     SPI0PCF   DATA 0DFH; SPI0 Pin Configuration                   
 0088               +1  229     TCON      DATA 088H; Timer 0/1 Control                        
 008C               +1  230     TH0       DATA 08CH; Timer 0 High Byte                        
 008D               +1  231     TH1       DATA 08DH; Timer 1 High Byte                        
 008A               +1  232     TL0       DATA 08AH; Timer 0 Low Byte                         
 008B               +1  233     TL1       DATA 08BH; Timer 1 Low Byte                         
 0089               +1  234     TMOD      DATA 089H; Timer 0/1 Mode                           
 00C8               +1  235     TMR2CN0   DATA 0C8H; Timer 2 Control 0                        
 00FD               +1  236     TMR2CN1   DATA 0FDH; Timer 2 Control 1                        
 00CF               +1  237     TMR2H     DATA 0CFH; Timer 2 High Byte                        
 00CE               +1  238     TMR2L     DATA 0CEH; Timer 2 Low Byte                         
 00CB               +1  239     TMR2RLH   DATA 0CBH; Timer 2 Reload High Byte                 
AX51 MACRO ASSEMBLER  MESSVERST_NEW                                                         01/07/24 00:14:01 PAGE     5

 00CA               +1  240     TMR2RLL   DATA 0CAH; Timer 2 Reload Low Byte                  
 0091               +1  241     TMR3CN0   DATA 091H; Timer 3 Control 0                        
 00FE               +1  242     TMR3CN1   DATA 0FEH; Timer 3 Control 1                        
 0095               +1  243     TMR3H     DATA 095H; Timer 3 High Byte                        
 0094               +1  244     TMR3L     DATA 094H; Timer 3 Low Byte                         
 0093               +1  245     TMR3RLH   DATA 093H; Timer 3 Reload High Byte                 
 0092               +1  246     TMR3RLL   DATA 092H; Timer 3 Reload Low Byte                  
 0098               +1  247     TMR4CN0   DATA 098H; Timer 4 Control 0                        
 00FF               +1  248     TMR4CN1   DATA 0FFH; Timer 4 Control 1                        
 00A5               +1  249     TMR4H     DATA 0A5H; Timer 4 High Byte                        
 00A4               +1  250     TMR4L     DATA 0A4H; Timer 4 Low Byte                         
 00A3               +1  251     TMR4RLH   DATA 0A3H; Timer 4 Reload High Byte                 
 00A2               +1  252     TMR4RLL   DATA 0A2H; Timer 4 Reload Low Byte                  
 00C0               +1  253     TMR5CN0   DATA 0C0H; Timer 5 Control 0                        
 00F1               +1  254     TMR5CN1   DATA 0F1H; Timer 5 Control 1                        
 00D5               +1  255     TMR5H     DATA 0D5H; Timer 5 High Byte                        
 00D4               +1  256     TMR5L     DATA 0D4H; Timer 5 Low Byte                         
 00D3               +1  257     TMR5RLH   DATA 0D3H; Timer 5 Reload High Byte                 
 00D2               +1  258     TMR5RLL   DATA 0D2H; Timer 5 Reload Low Byte                  
 00D9               +1  259     UART0PCF  DATA 0D9H; UART0 Pin Configuration                  
 009D               +1  260     UART1FCN0 DATA 09DH; UART1 FIFO Control 0                     
 00D8               +1  261     UART1FCN1 DATA 0D8H; UART1 FIFO Control 1                     
 00FA               +1  262     UART1FCT  DATA 0FAH; UART1 FIFO Count                         
 009E               +1  263     UART1LIN  DATA 09EH; UART1 LIN Configuration                  
 00DA               +1  264     UART1PCF  DATA 0DAH; UART1 Pin Configuration                  
 00FF               +1  265     VDM0CN    DATA 0FFH; Supply Monitor Control                   
 0097               +1  266     WDTCN     DATA 097H; Watchdog Timer Control                   
 00E1               +1  267     XBR0      DATA 0E1H; Port I/O Crossbar 0                      
 00E2               +1  268     XBR1      DATA 0E2H; Port I/O Crossbar 1                      
 00E3               +1  269     XBR2      DATA 0E3H; Port I/O Crossbar 2                      
 0086               +1  270     XOSC0CN   DATA 086H; External Oscillator Control              
                    +1  271     
                    +1  272     ;------------------------------------------------------------------------------
                    +1  273     ; 16-bit Register Definitions (may not work on all compilers)
                    +1  274     ;------------------------------------------------------------------------------
 00B5               +1  275     ADC0ASA DATA 0B5H ; ADC0 Autoscan Start Address Low Byte 
 00C3               +1  276     ADC0GT  DATA 0C3H ; ADC0 Greater-Than Low Byte           
 00BD               +1  277     ADC0    DATA 0BDH ; ADC0 Data Word Low Byte              
 00C5               +1  278     ADC0LT  DATA 0C5H ; ADC0 Less-Than Low Byte              
 0082               +1  279     DP      DATA 082H ; Data Pointer Low                     
 00FB               +1  280     PCA0CP0 DATA 0FBH ; PCA Channel 0 Capture Module Low Byte
 00E9               +1  281     PCA0CP1 DATA 0E9H ; PCA Channel 1 Capture Module Low Byte
 00EB               +1  282     PCA0CP2 DATA 0EBH ; PCA Channel 2 Capture Module Low Byte
 00F4               +1  283     PCA0CP3 DATA 0F4H ; PCA Channel 3 Capture Module Low Byte
 0084               +1  284     PCA0CP4 DATA 084H ; PCA Channel 4 Capture Module Low Byte
 00DD               +1  285     PCA0CP5 DATA 0DDH ; PCA Channel 5 Capture Module Low Byte
 00F9               +1  286     PCA0    DATA 0F9H ; PCA Counter/Timer Low Byte           
 00CE               +1  287     TMR2    DATA 0CEH ; Timer 2 Low Byte                     
 00CA               +1  288     TMR2RL  DATA 0CAH ; Timer 2 Reload Low Byte              
 0094               +1  289     TMR3    DATA 094H ; Timer 3 Low Byte                     
 0092               +1  290     TMR3RL  DATA 092H ; Timer 3 Reload Low Byte              
 00A4               +1  291     TMR4    DATA 0A4H ; Timer 4 Low Byte                     
 00A2               +1  292     TMR4RL  DATA 0A2H ; Timer 4 Reload Low Byte              
 00D4               +1  293     TMR5    DATA 0D4H ; Timer 5 Low Byte                     
 00D2               +1  294     TMR5RL  DATA 0D2H ; Timer 5 Reload Low Byte              
                    +1  295     
                    +1  296     ;------------------------------------------------------------------------------
                    +1  297     ; Indirect Register Definitions
                    +1  298     ;------------------------------------------------------------------------------
                    +1  299     
                    +1  300     ;------------------------------------------------------------------------------
                    +1  301     ; Bit Definitions
                    +1  302     ;------------------------------------------------------------------------------
AX51 MACRO ASSEMBLER  MESSVERST_NEW                                                         01/07/24 00:14:01 PAGE     6

                    +1  303     
                    +1  304     ; ACC 0xE0 (Accumulator)
 00E0.0             +1  305     ACC_ACC0 BIT ACC.0 ; Accumulator Bit 0
 00E0.1             +1  306     ACC_ACC1 BIT ACC.1 ; Accumulator Bit 1
 00E0.2             +1  307     ACC_ACC2 BIT ACC.2 ; Accumulator Bit 2
 00E0.3             +1  308     ACC_ACC3 BIT ACC.3 ; Accumulator Bit 3
 00E0.4             +1  309     ACC_ACC4 BIT ACC.4 ; Accumulator Bit 4
 00E0.5             +1  310     ACC_ACC5 BIT ACC.5 ; Accumulator Bit 5
 00E0.6             +1  311     ACC_ACC6 BIT ACC.6 ; Accumulator Bit 6
 00E0.7             +1  312     ACC_ACC7 BIT ACC.7 ; Accumulator Bit 7
                    +1  313     
                    +1  314     ; ADC0CN0 0xE8 (ADC0 Control 0)
 00E8.0             +1  315     ADC0CN0_TEMPE  BIT ADC0CN0.0 ; Temperature Sensor Enable         
 00E8.1             +1  316     ADC0CN0_ADGN0  BIT ADC0CN0.1 ; Gain Control Bit 0                
 00E8.2             +1  317     ADC0CN0_ADGN1  BIT ADC0CN0.2 ; Gain Control Bit 1                
 00E8.3             +1  318     ADC0CN0_ADWINT BIT ADC0CN0.3 ; Window Compare Interrupt Flag     
 00E8.4             +1  319     ADC0CN0_ADBUSY BIT ADC0CN0.4 ; ADC Busy                          
 00E8.5             +1  320     ADC0CN0_ADINT  BIT ADC0CN0.5 ; Conversion Complete Interrupt Flag
 00E8.6             +1  321     ADC0CN0_IPOEN  BIT ADC0CN0.6 ; Idle Powered-off Enable           
 00E8.7             +1  322     ADC0CN0_ADEN   BIT ADC0CN0.7 ; ADC Enable                        
                    +1  323     
                    +1  324     ; B 0xF0 (B Register)
 00F0.0             +1  325     B_B0 BIT B.0 ; B Register Bit 0
 00F0.1             +1  326     B_B1 BIT B.1 ; B Register Bit 1
 00F0.2             +1  327     B_B2 BIT B.2 ; B Register Bit 2
 00F0.3             +1  328     B_B3 BIT B.3 ; B Register Bit 3
 00F0.4             +1  329     B_B4 BIT B.4 ; B Register Bit 4
 00F0.5             +1  330     B_B5 BIT B.5 ; B Register Bit 5
 00F0.6             +1  331     B_B6 BIT B.6 ; B Register Bit 6
 00F0.7             +1  332     B_B7 BIT B.7 ; B Register Bit 7
                    +1  333     
                    +1  334     ; CLIF0 0xE8 (Configurable Logic Interrupt Flag 0)
 00E8.0             +1  335     CLIF0_C0FIF BIT CLIF0.0 ; CLU0 Falling Edge Interrupt Flag
 00E8.1             +1  336     CLIF0_C0RIF BIT CLIF0.1 ; CLU0 Rising Edge Interrupt Flag 
 00E8.2             +1  337     CLIF0_C1FIF BIT CLIF0.2 ; CLU1 Falling Edge Interrupt Flag
 00E8.3             +1  338     CLIF0_C1RIF BIT CLIF0.3 ; CLU1 Rising Edge Interrupt Flag 
 00E8.4             +1  339     CLIF0_C2FIF BIT CLIF0.4 ; CLU2 Falling Edge Interrupt Flag
 00E8.5             +1  340     CLIF0_C2RIF BIT CLIF0.5 ; CLU2 Rising Edge Interrupt Flag 
 00E8.6             +1  341     CLIF0_C3FIF BIT CLIF0.6 ; CLU3 Falling Edge Interrupt Flag
 00E8.7             +1  342     CLIF0_C3RIF BIT CLIF0.7 ; CLU3 Rising Edge Interrupt Flag 
                    +1  343     
                    +1  344     ; DACGCF0 0x88 (DAC Global Configuration 0)
 0088.0             +1  345     DACGCF0_D1SRC0   BIT DACGCF0.0 ; DAC1 Data Source Bit 0                
 0088.1             +1  346     DACGCF0_D1SRC1   BIT DACGCF0.1 ; DAC1 Data Source Bit 1                
 0088.2             +1  347     DACGCF0_D1AMEN   BIT DACGCF0.2 ; DAC1 Alternating Mode Enable          
 0088.3             +1  348     DACGCF0_D01REFSL BIT DACGCF0.3 ; DAC0 and DAC1 Reference Voltage Select
 0088.4             +1  349     DACGCF0_D3SRC0   BIT DACGCF0.4 ; DAC3 Data Source Bit 0                
 0088.5             +1  350     DACGCF0_D3SRC1   BIT DACGCF0.5 ; DAC3 Data Source Bit 1                
 0088.6             +1  351     DACGCF0_D3AMEN   BIT DACGCF0.6 ; DAC3 Alternating Mode Enable          
 0088.7             +1  352     DACGCF0_D23REFSL BIT DACGCF0.7 ; DAC2 and DAC3 Reference Voltage Select
                    +1  353     
                    +1  354     ; DACGCF1 0x98 (DAC Global Configuration 1)
 0098.0             +1  355     DACGCF1_D0UDIS BIT DACGCF1.0 ; DAC0 Update Disable
 0098.1             +1  356     DACGCF1_D1UDIS BIT DACGCF1.1 ; DAC1 Update Disable
 0098.2             +1  357     DACGCF1_D2UDIS BIT DACGCF1.2 ; DAC2 Update Disable
 0098.3             +1  358     DACGCF1_D3UDIS BIT DACGCF1.3 ; DAC3 Update Disable
                    +1  359     
                    +1  360     ; IE 0xA8 (Interrupt Enable)
 00A8.0             +1  361     IE_EX0   BIT IE.0 ; External Interrupt 0 Enable
 00A8.1             +1  362     IE_ET0   BIT IE.1 ; Timer 0 Interrupt Enable   
 00A8.2             +1  363     IE_EX1   BIT IE.2 ; External Interrupt 1 Enable
 00A8.3             +1  364     IE_ET1   BIT IE.3 ; Timer 1 Interrupt Enable   
 00A8.4             +1  365     IE_ES0   BIT IE.4 ; UART0 Interrupt Enable     
AX51 MACRO ASSEMBLER  MESSVERST_NEW                                                         01/07/24 00:14:01 PAGE     7

 00A8.5             +1  366     IE_ET2   BIT IE.5 ; Timer 2 Interrupt Enable   
 00A8.6             +1  367     IE_ESPI0 BIT IE.6 ; SPI0 Interrupt Enable      
 00A8.7             +1  368     IE_EA    BIT IE.7 ; All Interrupts Enable      
                    +1  369     
                    +1  370     ; IP 0xB8 (Interrupt Priority)
 00B8.0             +1  371     IP_PX0   BIT IP.0 ; External Interrupt 0 Priority Control LSB                        
 00B8.1             +1  372     IP_PT0   BIT IP.1 ; Timer 0 Interrupt Priority Control LSB                           
 00B8.2             +1  373     IP_PX1   BIT IP.2 ; External Interrupt 1 Priority Control LSB                        
 00B8.3             +1  374     IP_PT1   BIT IP.3 ; Timer 1 Interrupt Priority Control LSB                           
 00B8.4             +1  375     IP_PS0   BIT IP.4 ; UART0 Interrupt Priority Control LSB                             
 00B8.5             +1  376     IP_PT2   BIT IP.5 ; Timer 2 Interrupt Priority Control LSB                           
 00B8.6             +1  377     IP_PSPI0 BIT IP.6 ; Serial Peripheral Interface (SPI0) Interrupt Priority Control LSB
                    +1  378     
                    +1  379     ; P0 0x80 (Port 0 Pin Latch)
 0080.0             +1  380     P0_B0 BIT P0.0 ; Port 0 Bit 0 Latch
 0080.1             +1  381     P0_B1 BIT P0.1 ; Port 0 Bit 1 Latch
 0080.2             +1  382     P0_B2 BIT P0.2 ; Port 0 Bit 2 Latch
 0080.3             +1  383     P0_B3 BIT P0.3 ; Port 0 Bit 3 Latch
 0080.4             +1  384     P0_B4 BIT P0.4 ; Port 0 Bit 4 Latch
 0080.5             +1  385     P0_B5 BIT P0.5 ; Port 0 Bit 5 Latch
 0080.6             +1  386     P0_B6 BIT P0.6 ; Port 0 Bit 6 Latch
 0080.7             +1  387     P0_B7 BIT P0.7 ; Port 0 Bit 7 Latch
                    +1  388     
                    +1  389     ; P1 0x90 (Port 1 Pin Latch)
 0090.0             +1  390     P1_B0 BIT P1.0 ; Port 1 Bit 0 Latch
 0090.1             +1  391     P1_B1 BIT P1.1 ; Port 1 Bit 1 Latch
 0090.2             +1  392     P1_B2 BIT P1.2 ; Port 1 Bit 2 Latch
 0090.3             +1  393     P1_B3 BIT P1.3 ; Port 1 Bit 3 Latch
 0090.4             +1  394     P1_B4 BIT P1.4 ; Port 1 Bit 4 Latch
 0090.5             +1  395     P1_B5 BIT P1.5 ; Port 1 Bit 5 Latch
 0090.6             +1  396     P1_B6 BIT P1.6 ; Port 1 Bit 6 Latch
 0090.7             +1  397     P1_B7 BIT P1.7 ; Port 1 Bit 7 Latch
                    +1  398     
                    +1  399     ; P2 0xA0 (Port 2 Pin Latch)
 00A0.0             +1  400     P2_B0 BIT P2.0 ; Port 2 Bit 0 Latch
 00A0.1             +1  401     P2_B1 BIT P2.1 ; Port 2 Bit 1 Latch
 00A0.2             +1  402     P2_B2 BIT P2.2 ; Port 2 Bit 2 Latch
 00A0.3             +1  403     P2_B3 BIT P2.3 ; Port 2 Bit 3 Latch
 00A0.4             +1  404     P2_B4 BIT P2.4 ; Port 2 Bit 4 Latch
 00A0.5             +1  405     P2_B5 BIT P2.5 ; Port 2 Bit 5 Latch
 00A0.6             +1  406     P2_B6 BIT P2.6 ; Port 2 Bit 6 Latch
                    +1  407     
                    +1  408     ; P3 0xB0 (Port 3 Pin Latch)
 00B0.0             +1  409     P3_B0 BIT P3.0 ; Port 3 Bit 0 Latch
 00B0.1             +1  410     P3_B1 BIT P3.1 ; Port 3 Bit 1 Latch
 00B0.2             +1  411     P3_B2 BIT P3.2 ; Port 3 Bit 2 Latch
 00B0.3             +1  412     P3_B3 BIT P3.3 ; Port 3 Bit 3 Latch
 00B0.4             +1  413     P3_B4 BIT P3.4 ; Port 3 Bit 4 Latch
 00B0.7             +1  414     P3_B7 BIT P3.7 ; Port 3 Bit 7 Latch
                    +1  415     
                    +1  416     ; PCA0CN0 0xD8 (PCA Control)
 00D8.0             +1  417     PCA0CN0_CCF0 BIT PCA0CN0.0 ; PCA Module 0 Capture/Compare Flag
 00D8.1             +1  418     PCA0CN0_CCF1 BIT PCA0CN0.1 ; PCA Module 1 Capture/Compare Flag
 00D8.2             +1  419     PCA0CN0_CCF2 BIT PCA0CN0.2 ; PCA Module 2 Capture/Compare Flag
 00D8.3             +1  420     PCA0CN0_CCF3 BIT PCA0CN0.3 ; PCA Module 3 Capture/Compare Flag
 00D8.4             +1  421     PCA0CN0_CCF4 BIT PCA0CN0.4 ; PCA Module 4 Capture/Compare Flag
 00D8.5             +1  422     PCA0CN0_CCF5 BIT PCA0CN0.5 ; PCA Module 5 Capture/Compare Flag
 00D8.6             +1  423     PCA0CN0_CR   BIT PCA0CN0.6 ; PCA Counter/Timer Run Control    
 00D8.7             +1  424     PCA0CN0_CF   BIT PCA0CN0.7 ; PCA Counter/Timer Overflow Flag  
                    +1  425     
                    +1  426     ; PSW 0xD0 (Program Status Word)
 00D0.0             +1  427     PSW_PARITY BIT PSW.0 ; Parity Flag               
 00D0.1             +1  428     F1     BIT PSW.1 ; User Flag 1
AX51 MACRO ASSEMBLER  MESSVERST_NEW                                                         01/07/24 00:14:01 PAGE     8

 00D0.2             +1  429     PSW_OV     BIT PSW.2 ; Overflow Flag             
 00D0.3             +1  430     PSW_RS0    BIT PSW.3 ; Register Bank Select Bit 0
 00D0.4             +1  431     PSW_RS1    BIT PSW.4 ; Register Bank Select Bit 1
 00D0.5             +1  432     F0     BIT PSW.5 ; User Flag 0
 00D0.6             +1  433     PSW_AC     BIT PSW.6 ; Auxiliary Carry Flag      
 00D0.7             +1  434     PSW_CY     BIT PSW.7 ; Carry Flag                
                    +1  435     
                    +1  436     ; SCON0 0x98 (UART0 Serial Port Control)
 0098.0             +1  437     SCON0_RI    BIT SCON0.0 ; Receive Interrupt Flag             
 0098.1             +1  438     SCON0_TI    BIT SCON0.1 ; Transmit Interrupt Flag            
 0098.2             +1  439     SCON0_RB8   BIT SCON0.2 ; Ninth Receive Bit                  
 0098.3             +1  440     SCON0_TB8   BIT SCON0.3 ; Ninth Transmission Bit             
 0098.4             +1  441     SCON0_REN   BIT SCON0.4 ; Receive Enable                     
 0098.5             +1  442     SCON0_MCE   BIT SCON0.5 ; Multiprocessor Communication Enable
 0098.7             +1  443     SCON0_SMODE BIT SCON0.7 ; Serial Port 0 Operation Mode       
                    +1  444     
                    +1  445     ; SCON1 0xC8 (UART1 Serial Port Control)
 00C8.0             +1  446     SCON1_RI   BIT SCON1.0 ; Receive Interrupt Flag   
 00C8.1             +1  447     SCON1_TI   BIT SCON1.1 ; Transmit Interrupt Flag  
 00C8.2             +1  448     SCON1_RBX  BIT SCON1.2 ; Extra Receive Bit        
 00C8.3             +1  449     SCON1_TBX  BIT SCON1.3 ; Extra Transmission Bit   
 00C8.4             +1  450     SCON1_REN  BIT SCON1.4 ; Receive Enable           
 00C8.6             +1  451     SCON1_PERR BIT SCON1.6 ; Parity Error Flag        
 00C8.7             +1  452     SCON1_OVR  BIT SCON1.7 ; Receive FIFO Overrun Flag
                    +1  453     
                    +1  454     ; SMB0CN0 0xC0 (SMBus 0 Control)
 00C0.0             +1  455     SMB0CN0_SI      BIT SMB0CN0.0 ; SMBus Interrupt Flag            
 00C0.1             +1  456     SMB0CN0_ACK     BIT SMB0CN0.1 ; SMBus Acknowledge               
 00C0.2             +1  457     SMB0CN0_ARBLOST BIT SMB0CN0.2 ; SMBus Arbitration Lost Indicator
 00C0.3             +1  458     SMB0CN0_ACKRQ   BIT SMB0CN0.3 ; SMBus Acknowledge Request       
 00C0.4             +1  459     SMB0CN0_STO     BIT SMB0CN0.4 ; SMBus Stop Flag                 
 00C0.5             +1  460     SMB0CN0_STA     BIT SMB0CN0.5 ; SMBus Start Flag                
 00C0.6             +1  461     SMB0CN0_TXMODE  BIT SMB0CN0.6 ; SMBus Transmit Mode Indicator   
 00C0.7             +1  462     SMB0CN0_MASTER  BIT SMB0CN0.7 ; SMBus Master/Slave Indicator    
                    +1  463     
                    +1  464     ; SPI0CN0 0xF8 (SPI0 Control)
 00F8.0             +1  465     SPI0CN0_SPIEN  BIT SPI0CN0.0 ; SPI0 Enable            
 00F8.1             +1  466     SPI0CN0_TXNF   BIT SPI0CN0.1 ; TX FIFO Not Full       
 00F8.2             +1  467     SPI0CN0_NSSMD0 BIT SPI0CN0.2 ; Slave Select Mode Bit 0
 00F8.3             +1  468     SPI0CN0_NSSMD1 BIT SPI0CN0.3 ; Slave Select Mode Bit 1
 00F8.4             +1  469     SPI0CN0_RXOVRN BIT SPI0CN0.4 ; Receive Overrun Flag   
 00F8.5             +1  470     SPI0CN0_MODF   BIT SPI0CN0.5 ; Mode Fault Flag        
 00F8.6             +1  471     SPI0CN0_WCOL   BIT SPI0CN0.6 ; Write Collision Flag   
 00F8.7             +1  472     SPI0CN0_SPIF   BIT SPI0CN0.7 ; SPI0 Interrupt Flag    
                    +1  473     
                    +1  474     ; TCON 0x88 (Timer 0/1 Control)
 0088.0             +1  475     TCON_IT0 BIT TCON.0 ; Interrupt 0 Type Select
 0088.1             +1  476     TCON_IE0 BIT TCON.1 ; External Interrupt 0   
 0088.2             +1  477     TCON_IT1 BIT TCON.2 ; Interrupt 1 Type Select
 0088.3             +1  478     TCON_IE1 BIT TCON.3 ; External Interrupt 1   
 0088.4             +1  479     TCON_TR0 BIT TCON.4 ; Timer 0 Run Control    
 0088.5             +1  480     TCON_TF0 BIT TCON.5 ; Timer 0 Overflow Flag
 0088.6             +1  481     TCON_TR1 BIT TCON.6 ; Timer 1 Run Control    
 0088.7             +1  482     TCON_TF1 BIT TCON.7 ; Timer 1 Overflow Flag
                    +1  483     
                    +1  484     ; TMR2CN0 0xC8 (Timer 2 Control 0)
 00C8.0             +1  485     TMR2CN0_T2XCLK0 BIT TMR2CN0.0 ; Timer 2 External Clock Select Bit 0
 00C8.1             +1  486     TMR2CN0_T2XCLK1 BIT TMR2CN0.1 ; Timer 2 External Clock Select Bit 1
 00C8.2             +1  487     TMR2CN0_TR2     BIT TMR2CN0.2 ; Timer 2 Run Control                
 00C8.3             +1  488     TMR2CN0_T2SPLIT BIT TMR2CN0.3 ; Timer 2 Split Mode Enable          
 00C8.4             +1  489     TMR2CN0_TF2CEN  BIT TMR2CN0.4 ; Timer 2 Capture Enable             
 00C8.5             +1  490     TMR2CN0_TF2LEN  BIT TMR2CN0.5 ; Timer 2 Low Byte Interrupt Enable  
 00C8.6             +1  491     TMR2CN0_TF2L    BIT TMR2CN0.6 ; Timer 2 Low Byte Overflow Flag     
AX51 MACRO ASSEMBLER  MESSVERST_NEW                                                         01/07/24 00:14:01 PAGE     9

 00C8.7             +1  492     TMR2CN0_TF2H    BIT TMR2CN0.7 ; Timer 2 High Byte Overflow Flag    
                    +1  493     
                    +1  494     ; TMR4CN0 0x98 (Timer 4 Control 0)
 0098.0             +1  495     TMR4CN0_T4XCLK0 BIT TMR4CN0.0 ; Timer 4 External Clock Select Bit 0
 0098.1             +1  496     TMR4CN0_T4XCLK1 BIT TMR4CN0.1 ; Timer 4 External Clock Select Bit 1
 0098.2             +1  497     TMR4CN0_TR4     BIT TMR4CN0.2 ; Timer 4 Run Control                
 0098.3             +1  498     TMR4CN0_T4SPLIT BIT TMR4CN0.3 ; Timer 4 Split Mode Enable          
 0098.4             +1  499     TMR4CN0_TF4CEN  BIT TMR4CN0.4 ; Timer 4 Capture Enable             
 0098.5             +1  500     TMR4CN0_TF4LEN  BIT TMR4CN0.5 ; Timer 4 Low Byte Interrupt Enable  
 0098.6             +1  501     TMR4CN0_TF4L    BIT TMR4CN0.6 ; Timer 4 Low Byte Overflow Flag     
 0098.7             +1  502     TMR4CN0_TF4H    BIT TMR4CN0.7 ; Timer 4 High Byte Overflow Flag    
                    +1  503     
                    +1  504     ; TMR5CN0 0xC0 (Timer 5 Control 0)
 00C0.0             +1  505     TMR5CN0_T5XCLK0 BIT TMR5CN0.0 ; Timer 5 External Clock Select Bit 0
 00C0.1             +1  506     TMR5CN0_T5XCLK1 BIT TMR5CN0.1 ; Timer 5 External Clock Select Bit 1
 00C0.2             +1  507     TMR5CN0_TR5     BIT TMR5CN0.2 ; Timer 5 Run Control                
 00C0.3             +1  508     TMR5CN0_T5SPLIT BIT TMR5CN0.3 ; Timer 5 Split Mode Enable          
 00C0.4             +1  509     TMR5CN0_TF5CEN  BIT TMR5CN0.4 ; Timer 5 Capture Enable             
 00C0.5             +1  510     TMR5CN0_TF5LEN  BIT TMR5CN0.5 ; Timer 5 Low Byte Interrupt Enable  
 00C0.6             +1  511     TMR5CN0_TF5L    BIT TMR5CN0.6 ; Timer 5 Low Byte Overflow Flag     
 00C0.7             +1  512     TMR5CN0_TF5H    BIT TMR5CN0.7 ; Timer 5 High Byte Overflow Flag    
                    +1  513     
                    +1  514     ; UART1FCN1 0xD8 (UART1 FIFO Control 1)
 00D8.0             +1  515     UART1FCN1_RIE    BIT UART1FCN1.0 ; Receive Interrupt Enable 
 00D8.1             +1  516     UART1FCN1_RXTO0  BIT UART1FCN1.1 ; Receive Timeout Bit 0    
 00D8.2             +1  517     UART1FCN1_RXTO1  BIT UART1FCN1.2 ; Receive Timeout Bit 1    
 00D8.3             +1  518     UART1FCN1_RFRQ   BIT UART1FCN1.3 ; Receive FIFO Request     
 00D8.4             +1  519     UART1FCN1_TIE    BIT UART1FCN1.4 ; Transmit Interrupt Enable
 00D8.5             +1  520     UART1FCN1_TXHOLD BIT UART1FCN1.5 ; Transmit Hold            
 00D8.6             +1  521     UART1FCN1_TXNF   BIT UART1FCN1.6 ; TX FIFO Not Full         
 00D8.7             +1  522     UART1FCN1_TFRQ   BIT UART1FCN1.7 ; Transmit FIFO Request    
                    +1  523     
                    +1  524     ;------------------------------------------------------------------------------
                    +1  525     ; Interrupt Definitions
                    +1  526     ;------------------------------------------------------------------------------
 0000               +1  527     INT0_IRQn    EQU 0  ; External Interrupt 0      
 0001               +1  528     TIMER0_IRQn  EQU 1  ; Timer 0 Overflow          
 0002               +1  529     INT1_IRQn    EQU 2  ; External Interrupt 1      
 0003               +1  530     TIMER1_IRQn  EQU 3  ; Timer 1 Overflow          
 0004               +1  531     UART0_IRQn   EQU 4  ; UART0                     
 0005               +1  532     TIMER2_IRQn  EQU 5  ; Timer 2 Overflow / Capture
 0006               +1  533     SPI0_IRQn    EQU 6  ; SPI0                      
 0007               +1  534     SMBUS0_IRQn  EQU 7  ; SMBus 0                   
 0008               +1  535     PMATCH_IRQn  EQU 8  ; Port Match                
 0009               +1  536     ADC0WC_IRQn  EQU 9  ; ADC0 Window Compare       
 000A               +1  537     ADC0EOC_IRQn EQU 10 ; ADC0 End of Conversion    
 000B               +1  538     PCA0_IRQn    EQU 11 ; PCA0                      
 000C               +1  539     CMP0_IRQn    EQU 12 ; Comparator 0              
 000D               +1  540     CMP1_IRQn    EQU 13 ; Comparator 1              
 000E               +1  541     TIMER3_IRQn  EQU 14 ; Timer 3 Overflow / Capture
 000F               +1  542     UART1_IRQn   EQU 15 ; UART1                     
 0010               +1  543     I2C0_IRQn    EQU 16 ; I2C0 Slave                
 0011               +1  544     TIMER4_IRQn  EQU 17 ; Timer 4 Overflow / Capture
 0012               +1  545     TIMER5_IRQn  EQU 18 ; Timer 5 Overflow / Capture
 0013               +1  546     CL0_IRQn     EQU 19 ; Configurable Logic        
                    +1  547     
                    +1  548     ;------------------------------------------------------------------------------
                    +1  549     ; SFR Page Definitions
                    +1  550     ;------------------------------------------------------------------------------
 0000               +1  551     LEGACY_PAGE  EQU 000H ; Legacy SFR Page
 0010               +1  552     PG2_PAGE     EQU 010H ; Page2          
 0020               +1  553     PG3_PAGE     EQU 020H ; Page3          
 0030               +1  554     PG4_PAGE     EQU 030H ; Page4          
AX51 MACRO ASSEMBLER  MESSVERST_NEW                                                         01/07/24 00:14:01 PAGE    10

                        555     
                        556     
                        557     
                        558     
                        559     
                        560     
                        561     
                        562     
0080.1                  563     ADC_OV      equ         P0.1
0080.2                  564     ADC_UV      equ         P0.2
0080.3                  565     AUTOZ_IN    equ         P0.3
0080.4                  566     UART_TX     equ         P0.4
0080.5                  567     UART_RX     equ         P0.5
0080.6                  568     SPI_CLK     equ         P0.6
0080.7                  569     SPI_MISO    equ         P0.7
                        570     
0090.0                  571     SPI_MOSI        equ             P1.0
0090.1                  572     CS_PDA          equ             P1.1
0090.2                  573     S2                      equ             P1.2
0090.3                  574     S1                      equ             P1.3
0090.4                  575     ENCODER_A       equ             P1.4
0090.5                  576     ENCODER_B       equ             P1.5
0090.6                  577     ENCODER_MID     equ             P1.6
0090.7                  578     E                       equ             P1.7
                        579     
00A0.0                  580     CS_DISPLAY      equ             P2.0
00A0.1                  581     RST_DISPLAY     equ             P2.1
00A0.2                  582     ADC_LP_FILTER   equ     P2.2
00A0.3                  583     DE_RE           equ             P2.3
00A0.4                  584     LED_GREEN       equ             P2.4
00A0.5                  585     LED_RED         equ             P2.5
00A0.6                  586     LED_WHITE       equ             P2.6
                        587     
00B0.0                  588     VREF            equ             P3.0
00B0.1                  589     DAC_OUT         equ             P3.1
00B0.2                  590     OVERLOAD    equ         P3.2
                        591     
                        592     
                        593     
                        594     
                        595     
                        596     
                        597     
------                  598     FLAGS2          SEGMENT BIT
------                  599                     RSEG    FLAGS2
0000.0                  600     ERROR:                  DBIT    1
0000.1                  601     Auto_zero_on:   DBIT    1
0000.2                  602     ADC_Pos:                DBIT    1
0000.3                  603     ADC_Neg:                DBIT    1
0000.4                  604     ADC_warten:             DBIT    1
0000.5                  605     GAIN_SET:               DBIT    1
0000.6                  606     OVERRANGE_P:    DBIT    1
0000.7                  607     OVERRANGE_N:    DBIT    1
0001.0                  608     DAC0_max:               DBIT    1
0001.1                  609     DAC0_min:               DBIT    1
0001.2                  610     BIT_OVERVOLT:   DBIT    1
0001.3                  611     BIT_OVERRANGE:  DBIT    1
0001.4                  612     BIT_AUTOZ:              DBIT    1
0001.5                  613     encoder_down:   DBIT    1
0001.6                  614     encoder_up:             DBIT    1
0001.7                  615     SPI_Display:    DBIT    1
0002.0                  616     wait_for_SPI:   DBIT    1
0002.1                  617     SONDERMENU:             DBIT    1
AX51 MACRO ASSEMBLER  MESSVERST_NEW                                                         01/07/24 00:14:01 PAGE    11

0002.2                  618     display_clr:    DBIT    1
0002.3                  619     Init_Display_OK:DBIT    1
0002.4                  620     display_clear:  DBIT    1
0002.5                  621     overheat:               DBIT    1
0002.6                  622     bootscreen_ok:  DBIT    1
0002.7                  623     write_ok:               DBIT    1
0003.0                  624     write_OH:               DBIT    1
0003.1                  625     output_on:              DBIT    1
0003.2                  626     output_off:             DBIT    1
0003.3                  627     erste_zeile:    DBIT    1
0003.4                  628     OutputVoltage:  DBIT    1
0003.5                  629     set_R3:                 DBIT    1
0003.6                  630     R3_Overheat:    DBIT    1
0003.7                  631     write_MENU:             DBIT    1
0004.0                  632     R3_SONDERMENU:  DBIT    1
0004.1                  633     T1_blink:               DBIT    1
0004.2                  634     zweite_zeile:   DBIT    1
0004.3                  635     dritte_zeile:   DBIT    1
0004.4                  636     BIT_GAIN_500:   DBIT    1
0004.5                  637     BIT_GAIN_1K:    DBIT    1
0004.6                  638     BIT_GAIN_2K:    DBIT    1
0004.7                  639     BIT_GAIN_5K:    DBIT    1
0005.0                  640     BIT_GAIN_10K:   DBIT    1
0005.1                  641     BIT_GAIN_25K:   DBIT    1
0005.2                  642     BIT_GAIN_50K:   DBIT    1
0005.3                  643     BIT_GAIN_60K:   DBIT    1
0005.4                  644     LCD_fertig:             DBIT    1
0005.5                  645     SET_GAIN:               DBIT    1
0005.6                  646     SET_AUTOZERO:   DBIT    1
0005.7                  647     OVERVOLT_P:             DBIT    1
0006.0                  648     OVERVOLT_N:             DBIT    1
0006.1                  649     ADC_WC_SET:             DBIT    1
0006.2                  650     BLINK_LCD:              DBIT    1
0006.3                  651     OUTPUT_POSITIV: DBIT    1
0006.4                  652     OUTPUT_NEGATIV: DBIT    1
0006.5                  653     bootscreen_loading: DBIT        1
0006.6                  654     stufe1:                 DBIT    1
0006.7                  655     stufe2:                 DBIT    1
0007.0                  656     stufe3:                 DBIT    1
0007.1                  657     stufe4:                 DBIT    1
0007.2                  658     LP_1000HZ:              DBIT    1
0007.3                  659     LP_300HZ:               DBIT    1
0007.4                  660     LP_50HZ:                DBIT    1
0007.5                  661     LP_OFF:                 DBIT    1
0007.6                  662     KALIBRIEREN:    DBIT    1
0007.7                  663     KALIB_end:              DBIT    1
0008.0                  664     standby:                DBIT    1
0008.1                  665     press_screen_ok:DBIT    1
0008.2                  666     settings_saved: DBIT    1
0008.3                  667     selbsttest:             DBIT    1
0008.4                  668     option_menu:    DBIT    1
0008.5                  669     LOCKED:                 DBIT    1
0008.6                  670     encoder_middle: DBIT    1
0008.7                  671     Mittelwert_high:DBIT    1
0009.0                  672     ADC_messen:             DBIT    1
0009.1                  673     RS485_mode:             DBIT    1
0009.2                  674     RS485_ID:               DBIT    1
0009.3                  675     PAGE2:                  DBIT    1
0009.4                  676     RS485_DATA:             DBIT    1
0009.5                  677     UART_SENDEN:    DBIT    1
                        678     
                        679     
                        680     
AX51 MACRO ASSEMBLER  MESSVERST_NEW                                                         01/07/24 00:14:01 PAGE    12

                        681     
                        682     
                        683     
000000                  684                 cseg        AT 0
000000 020000     F     685                 ljmp        Init
                        686     
00000B                  687                 org         0x0b
00000B 020000     F     688                             ljmp    Timer0
                        689     
                        690     
                        691     
                        692     
00002B                  693                             org             0x2b
00002B 020000     F     694                             ljmp    Timer2
                        695     
000023                  696                             org             0x23
000023 020000     F     697                             ljmp    UART0_0
                        698     
000033                  699                             org             33h
000033 020000     F     700                             ljmp    SPI_int
                        701     
000043                  702                             org             0x43
000043 020000     F     703                             ljmp    Portmatch
                        704     
00004B                  705                             org             0x4b
00004B 020000     F     706                             ljmp    ADC_WINDOW
                        707     
000053                  708                             org             0x53
000053 020000     F     709                             ljmp    ADC_1
                        710     
000073                  711                             org             0x73
000073 020000     F     712                             ljmp    T3_OVERFLOW
                        713     
                        714     
                        715     
                        716     
                        717     
000076 C0E0             718     UART0_0:        push    ACC
000078 C0D0             719                             push    PSW
00007A 75A700           720                             mov             SFRPAGE, #00h
00007D 758920           721                             mov             TMOD, #20h
                        722     
000080 200003           723                             jb              UART_SENDEN, UART0_SEND
000083 020000     F     724                             ljmp    UART0_00
                        725     
                        726     
000086 90000F           727     UART0_SEND:     mov             DPTR, #000Fh
000089 3099FD           728     UART0_SEND1:jnb         SCON0_TI, $
00008C C299             729                             clr             SCON0_TI
00008E A3               730                             inc             DPTR
00008F E0               731                             movx    A, @DPTR
000090 6004             732                             jz              UART0_SEND2
000092 F599             733                             mov             SBUF0, A
000094 80F3             734                             jmp             UART0_SEND1
000096 C200       F     735     UART0_SEND2:clr         UART_SENDEN
000098 020000     F     736                             ljmp    UART0_END1
                        737     
                        738     
00009B 75F010           739     UART0_00:       mov             B, #16d
00009E 900000           740                             mov             DPTR, #00h
0000A1 7400             741     UART0_01:       mov             A, #00h
0000A3 F0               742                             movx    @DPTR, A
0000A4 D5F002           743                             djnz    B, UART0_02
AX51 MACRO ASSEMBLER  MESSVERST_NEW                                                         01/07/24 00:14:01 PAGE    13

0000A7 8003             744                             jmp             UART0_03
0000A9 A3               745     UART0_02:       inc             DPTR
0000AA 80F5             746                             jmp             UART0_01
                        747     
                        748     
0000AC 900000           749     UART0_03:       mov             DPTR, #00h
0000AF E599             750                             mov             A,SBUF0
0000B1 F0               751                             movx    @DPTR, A
0000B2 C298             752                             clr             SCON0_RI
                        753     
0000B4 758C1D           754                             mov             TH0, #1Dh
0000B7 758A00           755                             mov             TL0, #00h
0000BA C28D             756                             clr             TCON_TF0
0000BC 209806           757     UART0_1:        jb              SCON0_RI, UART0_2
0000BF 308DFA           758                             jnb             TCON_TF0, UART0_1
0000C2 020000     F     759                             ljmp    UART0_40
                        760     
                        761     
0000C5 900001           762     UART0_2:        mov             DPTR, #01h
0000C8 E599             763                             mov             A,SBUF0
0000CA F0               764                             movx    @DPTR, A
0000CB C298             765                             clr             SCON0_RI
                        766     
0000CD 758C1D           767                             mov             TH0, #1Dh
0000D0 758A00           768                             mov             TL0, #00h
0000D3 C28D             769                             clr             TCON_TF0
0000D5 209806           770     UART0_3:        jb              SCON0_RI, UART0_4
0000D8 308DFA           771                             jnb             TCON_TF0, UART0_3
0000DB 020000     F     772                             ljmp    UART0_40
                        773     
                        774     
0000DE 900002           775     UART0_4:        mov             DPTR, #02h
0000E1 E599             776                             mov             A,SBUF0
0000E3 F0               777                             movx    @DPTR, A
0000E4 C298             778                             clr             SCON0_RI
                        779     
0000E6 758C1D           780                             mov             TH0, #1Dh
0000E9 758A00           781                             mov             TL0, #00h
0000EC C28D             782                             clr             TCON_TF0
0000EE 209806           783     UART0_5:        jb              SCON0_RI, UART0_6
0000F1 308DFA           784                             jnb             TCON_TF0, UART0_5
0000F4 020000     F     785                             ljmp    UART0_40
                        786     
                        787     
0000F7 900003           788     UART0_6:        mov             DPTR, #03h
0000FA E599             789                             mov             A,SBUF0
0000FC F0               790                             movx    @DPTR, A
0000FD C298             791                             clr             SCON0_RI
                        792     
0000FF 758C1D           793                             mov             TH0, #1Dh
000102 758A00           794                             mov             TL0, #00h
000105 C28D             795                             clr             TCON_TF0
000107 209806           796     UART0_7:        jb              SCON0_RI, UART0_8
00010A 308DFA           797                             jnb             TCON_TF0, UART0_7
00010D 020000     F     798                             ljmp    UART0_40
                        799     
                        800     
000110 900004           801     UART0_8:        mov             DPTR, #04h
000113 E599             802                             mov             A,SBUF0
000115 F0               803                             movx    @DPTR, A
000116 C298             804                             clr             SCON0_RI
                        805     
000118 758C1D           806                             mov             TH0, #1Dh
AX51 MACRO ASSEMBLER  MESSVERST_NEW                                                         01/07/24 00:14:01 PAGE    14

00011B 758A00           807                             mov             TL0, #00h
00011E C28D             808                             clr             TCON_TF0
000120 209806           809     UART0_9:        jb              SCON0_RI, UART0_10
000123 308DFA           810                             jnb             TCON_TF0, UART0_9
000126 020000     F     811                             ljmp    UART0_40
                        812     
                        813     
000129 900005           814     UART0_10:       mov             DPTR, #05h
00012C E599             815                             mov             A,SBUF0
00012E F0               816                             movx    @DPTR, A
00012F C298             817                             clr             SCON0_RI
                        818     
000131 758C1D           819                             mov             TH0, #1Dh
000134 758A00           820                             mov             TL0, #00h
000137 C28D             821                             clr             TCON_TF0
000139 209806           822     UART0_11:       jb              SCON0_RI, UART0_12
00013C 308DFA           823                             jnb             TCON_TF0, UART0_11
00013F 020000     F     824                             ljmp    UART0_40
                        825     
                        826     
000142 900006           827     UART0_12:       mov             DPTR, #06h
000145 E599             828                             mov             A,SBUF0
000147 F0               829                             movx    @DPTR, A
000148 C298             830                             clr             SCON0_RI
                        831     
00014A 758C1D           832                             mov             TH0, #1Dh
00014D 758A00           833                             mov             TL0, #00h
000150 C28D             834                             clr             TCON_TF0
000152 209806           835     UART0_13:       jb              SCON0_RI, UART0_14
000155 308DFA           836                             jnb             TCON_TF0, UART0_13
000158 020000     F     837                             ljmp    UART0_40
                        838     
                        839     
00015B 900007           840     UART0_14:       mov             DPTR, #07h
00015E E599             841                             mov             A,SBUF0
000160 F0               842                             movx    @DPTR, A
000161 C298             843                             clr             SCON0_RI
                        844     
000163 758C1D           845                             mov             TH0, #1Dh
000166 758A00           846                             mov             TL0, #00h
000169 C28D             847                             clr             TCON_TF0
00016B 209806           848     UART0_15:       jb              SCON0_RI, UART0_16
00016E 308DFA           849                             jnb             TCON_TF0, UART0_15
000171 020000     F     850                             ljmp    UART0_40
                        851     
                        852     
000174 900008           853     UART0_16:       mov             DPTR, #08h
000177 E599             854                             mov             A,SBUF0
000179 F0               855                             movx    @DPTR, A
00017A C298             856                             clr             SCON0_RI
                        857     
00017C 758C1D           858                             mov             TH0, #1Dh
00017F 758A00           859                             mov             TL0, #00h
000182 C28D             860                             clr             TCON_TF0
000184 209806           861     UART0_17:       jb              SCON0_RI, UART0_18
000187 308DFA           862                             jnb             TCON_TF0, UART0_17
00018A 020000     F     863                             ljmp    UART0_40
                        864     
                        865     
00018D 900009           866     UART0_18:       mov             DPTR, #09h
000190 E599             867                             mov             A,SBUF0
000192 F0               868                             movx    @DPTR, A
000193 C298             869                             clr             SCON0_RI
AX51 MACRO ASSEMBLER  MESSVERST_NEW                                                         01/07/24 00:14:01 PAGE    15

                        870     
000195 758C1D           871                             mov             TH0, #1Dh
000198 758A00           872                             mov             TL0, #00h
00019B C28D             873                             clr             TCON_TF0
00019D 209806           874     UART0_19:       jb              SCON0_RI, UART0_20
0001A0 308DFA           875                             jnb             TCON_TF0, UART0_19
0001A3 020000     F     876                             ljmp    UART0_40
                        877     
                        878     
0001A6 90000A           879     UART0_20:       mov             DPTR, #0Ah
0001A9 E599             880                             mov             A,SBUF0
0001AB F0               881                             movx    @DPTR, A
0001AC C298             882                             clr             SCON0_RI
                        883     
0001AE 758C1D           884                             mov             TH0, #1Dh
0001B1 758A00           885                             mov             TL0, #00h
0001B4 C28D             886                             clr             TCON_TF0
0001B6 209806           887     UART0_21:       jb              SCON0_RI, UART0_22
0001B9 308DFA           888                             jnb             TCON_TF0, UART0_21
0001BC 020000     F     889                             ljmp    UART0_40
                        890     
                        891     
0001BF 90000B           892     UART0_22:       mov             DPTR, #0Bh
0001C2 E599             893                             mov             A,SBUF0
0001C4 F0               894                             movx    @DPTR, A
0001C5 C298             895                             clr             SCON0_RI
                        896     
0001C7 758C1D           897                             mov             TH0, #1Dh
0001CA 758A00           898                             mov             TL0, #00h
0001CD C28D             899                             clr             TCON_TF0
0001CF 209806           900     UART0_23:       jb              SCON0_RI, UART0_24
0001D2 308DFA           901                             jnb             TCON_TF0, UART0_23
0001D5 020000     F     902                             ljmp    UART0_40
                        903     
                        904     
0001D8 90000C           905     UART0_24:       mov             DPTR, #0Ch
0001DB E599             906                             mov             A,SBUF0
0001DD F0               907                             movx    @DPTR, A
0001DE C298             908                             clr             SCON0_RI
                        909     
0001E0 758C1D           910                             mov             TH0, #1Dh
0001E3 758A00           911                             mov             TL0, #00h
0001E6 C28D             912                             clr             TCON_TF0
0001E8 209806           913     UART0_25:       jb              SCON0_RI, UART0_26
0001EB 308DFA           914                             jnb             TCON_TF0, UART0_25
0001EE 020000     F     915                             ljmp    UART0_40
                        916     
                        917     
0001F1 90000D           918     UART0_26:       mov             DPTR, #0Dh
0001F4 E599             919                             mov             A,SBUF0
0001F6 F0               920                             movx    @DPTR, A
0001F7 C298             921                             clr             SCON0_RI
                        922     
0001F9 758C1D           923                             mov             TH0, #1Dh
0001FC 758A00           924                             mov             TL0, #00h
0001FF C28D             925                             clr             TCON_TF0
000201 209806           926     UART0_27:       jb              SCON0_RI, UART0_28
000204 308DFA           927                             jnb             TCON_TF0, UART0_27
000207 020000     F     928                             ljmp    UART0_40
                        929     
                        930     
00020A 90000E           931     UART0_28:       mov             DPTR, #0Eh
00020D E599             932                             mov             A,SBUF0
AX51 MACRO ASSEMBLER  MESSVERST_NEW                                                         01/07/24 00:14:01 PAGE    16

00020F F0               933                             movx    @DPTR, A
000210 C298             934                             clr             SCON0_RI
                        935     
000212 758C1D           936                             mov             TH0, #1Dh
000215 758A00           937                             mov             TL0, #00h
000218 C28D             938                             clr             TCON_TF0
00021A 209806           939     UART0_29:       jb              SCON0_RI, UART0_30
00021D 308DFA           940                             jnb             TCON_TF0, UART0_29
000220 020000     F     941                             ljmp    UART0_40
                        942     
                        943     
000223 90000F           944     UART0_30:       mov             DPTR, #0Fh
000226 E599             945                             mov             A,SBUF0
000228 F0               946                             movx    @DPTR, A
000229 C298             947                             clr             SCON0_RI
                        948     
00022B 758C1D           949                             mov             TH0, #1Dh
00022E 758A00           950                             mov             TL0, #00h
000231 C28D             951                             clr             TCON_TF0
000233 209806           952     UART0_31:       jb              SCON0_RI, UART0_39
000236 308DFA           953                             jnb             TCON_TF0, UART0_31
000239 020000     F     954                             ljmp    UART0_40
                        955     
00023C 8001             956     UART0_39:       jmp             UART0_END
00023E 00               957     UART0_40:       nop
00023F D200       F     958     UART0_END:      setb    RS485_DATA
000241 759870           959     UART0_END1:     mov             SCON0, #70h
000244 758922           960                             mov             TMOD, #22h
000247 D0D0             961                             pop             PSW
000249 D0E0             962                             pop             ACC
00024B 32               963                             reti
                        964     
                        965     
00024C C0E0             966     Timer0:         push    ACC
00024E C0D0             967                             push    PSW
000250 C28D             968                             clr             TCON_TF0
                        969     
000252 D0D0             970                             pop             PSW
000254 D0E0             971                             pop             ACC
000256 32               972                             reti
                        973     
                        974     
                        975     
                        976     
                        977     
                        978     
                        979     
                        980     
                        981     
                        982     
                        983     
                        984     
                        985     
000257 C0E0             986     Timer2:         push    ACC
000259 C0D0             987                             push    PSW
00025B 75C804           988                             mov             TMR2CN0, #04h
00025E 200008           989                             jb              kalibrieren, Timer2_4
000261 D54A05           990                             djnz    0x4A, Timer2_4
000264 754A0E           991                             mov             0x4A, #14d
000267 D200       F     992                             setb    ADC_messen
000269 D0D0             993     Timer2_4:       pop             PSW
00026B D0E0             994                             pop             ACC
00026D 32               995                             reti
AX51 MACRO ASSEMBLER  MESSVERST_NEW                                                         01/07/24 00:14:01 PAGE    17

                        996     
                        997     
00026E C0E0             998     T3_OVERFLOW:push        ACC
000270 C0D0             999                             push    PSW
000272 759500          1000                             mov             TMR3H, #00h
000275 759400          1001                             mov             TMR3L, #00h
000278 759104          1002                             mov             TMR3CN0, #04h
                       1003     
                       1004     
00027B 300038          1005                             jnb             bootscreen_ok, Timer3_3
00027E 200011          1006                             jb              GAIN_SET, Timer3_0
000281 D5310E          1007                             djnz    0x31, Timer3_0
000284 753190          1008                             mov             0x31, #90h
000287 E51F            1009                             mov             A, 0x1F
000289 AC1F            1010                             mov             R4, 0x1F
00028B C200       F    1011                             clr             GAIN_SET
00028D D200       F    1012                             setb    SET_GAIN
00028F 75FE08          1013                             mov             P0MASK, #08h
                       1014     
                       1015     
                       1016     
000292 200019          1017     Timer3_0:       jb              Auto_zero_on, Timer3_2
000295 20001E          1018                             jb              BIT_OVERRANGE, Timer3_3
000298 30001B          1019                             jnb             BIT_OVERVOLT, Timer3_3
00029B D50805          1020                             djnz    0x08, Timer3_1
00029E 750820          1021                             mov             0x08, #20h
0002A1 B200       F    1022                             cpl             BLINK_LCD
                       1023     
0002A3 200008          1024     Timer3_1:       jb              BLINK_LCD, Timer3_2
0002A6 C2A4            1025                             clr             LED_GREEN
0002A8 D2A5            1026                             setb    LED_RED
0002AA C2A6            1027                             clr             LED_WHITE
0002AC 8008            1028                             jmp             Timer3_3
0002AE C2A4            1029     Timer3_2:       clr             LED_GREEN
0002B0 C2A5            1030                             clr             LED_RED
0002B2 D2A6            1031                             setb    LED_WHITE
0002B4 8000            1032                             jmp             Timer3_3
                       1033     
0002B6 D0D0            1034     Timer3_3:       pop             PSW
0002B8 D0E0            1035                             pop             ACC
0002BA 32              1036                             reti
                       1037     
                       1038     
                       1039     
0002BB C0E0            1040     SPI_int:        push    ACC
0002BD C0D0            1041                             push    PSW
0002BF C2FF            1042                             clr             SPI0CN0_SPIF       ;Clean Int bit
0002C1 75A720          1043                             mov             SFRPAGE, #20h
0002C4 759A44          1044                             mov             SPI0FCN0, #44h
0002C7 75A700          1045                             mov             SFRPAGE, #00h
                       1046     
0002CA 300062          1047                             jnb             SPI_DISPLAY, SPI_end
0002CD C2A0            1048                             clr             CS_DISPLAY
0002CF 758CFF          1049                             mov             TH0, #0FFh
0002D2 758AFE          1050                             mov             TL0, #0FEh
0002D5 C28D            1051                             clr             TCON_TF0
0002D7 308DFD          1052                             jnb             TCON_TF0, $
                       1053     
0002DA 8511A3          1054     SPI1:           mov             SPI0DAT, 0x11
0002DD 75A720          1055                             mov             SFRPAGE, #20h
0002E0 E5F7            1056     SPI2:           mov             A, SPI0FCT
0002E2 440F            1057                             orl             A, #00001111b
0002E4 B40FF9          1058                             cjne    A, #0Fh, SPI2
AX51 MACRO ASSEMBLER  MESSVERST_NEW                                                         01/07/24 00:14:01 PAGE    18

0002E7 75A700          1059                             mov             SFRPAGE, #00h
0002EA 00              1060                             nop
0002EB 00              1061                             nop
0002EC 00              1062                             nop
0002ED 00              1063                             nop
0002EE 00              1064                             nop
0002EF 00              1065                             nop
0002F0 00              1066                             nop
0002F1 00              1067                             nop
0002F2 8512A3          1068                             mov             SPI0DAT, 0x12
0002F5 75A720          1069                             mov             SFRPAGE, #20h
0002F8 E5F7            1070     SPI3:           mov             A, SPI0FCT
0002FA 440F            1071                             orl             A, #00001111b
0002FC B40FF9          1072                             cjne    A, #0Fh, SPI3
0002FF 75A700          1073                             mov             SFRPAGE, #00h
000302 00              1074                             nop
000303 00              1075                             nop
000304 00              1076                             nop
000305 00              1077                             nop
000306 00              1078                             nop
000307 00              1079                             nop
000308 00              1080                             nop
000309 00              1081                             nop
00030A 8513A3          1082                             mov             SPI0DAT, 0x13
00030D 75A720          1083                             mov             SFRPAGE, #20h
000310 E5F7            1084     SPI4:           mov             A, SPI0FCT
000312 440F            1085                             orl             A, #00001111b
000314 B40FF9          1086                             cjne    A, #0Fh, SPI4
000317 75A700          1087                             mov             SFRPAGE, #00h
00031A 00              1088                             nop
00031B 00              1089                             nop
00031C 00              1090                             nop
00031D 00              1091                             nop
00031E 00              1092                             nop
00031F 00              1093                             nop
000320 00              1094                             nop
000321 00              1095                             nop
000322 E5A1            1096     SPI5:           mov             A, SPI0CFG
000324 447F            1097                             orl             A, #01111111b
000326 B47FF9          1098                             cjne    A, #7Fh, SPI5
000329 D2A0            1099     SPI6:           setb    CS_DISPLAY
00032B C200       F    1100                             clr             SPI_Display
00032D D200       F    1101                             setb    wait_for_SPI
00032F D0D0            1102     SPI_end:        pop             PSW
000331 D0E0            1103                             pop             ACC
000333 32              1104                             reti
                       1105     
                       1106     
                       1107     
000334 C0E0            1108     Portmatch:      push    ACC
000336 C0D0            1109                             push    PSW
000338 75FDFF          1110                             mov             P0MAT, #0FFh
00033B E5ED            1111                             mov             A, P1MAT
00033D B4FF06          1112                             cjne    A, #0FFh, help
000340 200006          1113                             jb              bootscreen_ok, Portmatch0
000343 020000     F    1114                             ljmp    Portmatch22
                       1115     
000346 020000     F    1116     help:           ljmp    Portmatch6
                       1117     
000349 20830D          1118     Portmatch0:     jb              AUTOZ_IN,Portmatch01
00034C 200008          1119                             jb              LOCKED, Portmatch00
00034F 200005          1120                             jb              RS485_mode, Portmatch00
000352 D200       F    1121                             setb    SET_AUTOZERO
AX51 MACRO ASSEMBLER  MESSVERST_NEW                                                         01/07/24 00:14:01 PAGE    19

000354 75FDF7          1122                             mov             P0MAT, #0F7h
000357 0100       F    1123     Portmatch00:jmp         Portmatch22
                       1124     
000359 30965B          1125     Portmatch01:jnb         ENCODER_MID, Portmatch5
00035C 2000F8          1126                             jb              RS485_mode, Portmatch00
00035F 309505          1127                             jnb             ENCODER_B, Portmatch1
000362 30942A          1128                             jnb             ENCODER_A, Portmatch2
000365 0100       F    1129                             jmp             Portmatch22
000367 3095FD          1130     Portmatch1:     jnb             ENCODER_B, Portmatch1
00036A 3094FA          1131                             jnb             ENCODER_A, Portmatch1
00036D 758C00          1132                             mov             TH0, #00h
000370 758A00          1133                             mov             TL0, #00h
000373 C28D            1134                             clr             TCON_TF0
000375 308DFD          1135                             jnb             TCON_TF0, $
000378 3095EC          1136                             jnb             ENCODER_B, Portmatch1
00037B 3094E9          1137                             jnb             ENCODER_A, Portmatch1
                       1138     
00037E D200       F    1139                             setb    encoder_down
000380 C200       F    1140                             clr             encoder_up
000382 C200       F    1141                             clr             encoder_middle
000384 75FE00          1142                             mov             P0MASK, #00h
000387 753190          1143                             mov             0x31, #90h
00038A 754701          1144                             mov             0x47, #01h
00038D 8042            1145                             jmp             Portmatch6
                       1146     
00038F 3094FD          1147     Portmatch2:     jnb             ENCODER_A, Portmatch2
000392 3095FA          1148                             jnb             ENCODER_B, Portmatch2
000395 758C00          1149                             mov             TH0, #00h
000398 758A00          1150                             mov             TL0, #00h
00039B C28D            1151                             clr             TCON_TF0
00039D 308DFD          1152                             jnb             TCON_TF0, $
0003A0 3094EC          1153                             jnb             ENCODER_A, Portmatch2
0003A3 3095E9          1154                             jnb             ENCODER_B, Portmatch2
                       1155     
0003A6 D200       F    1156                             setb    encoder_up
0003A8 C200       F    1157                             clr             encoder_down
0003AA C200       F    1158                             clr             encoder_middle
0003AC 75FE00          1159                             mov             P0MASK, #00h
0003AF 753190          1160                             mov             0x31, #90h
0003B2 754701          1161                             mov             0x47, #01h
                       1162     
0003B5 8071            1163                             jmp             Portmatch22
                       1164     
0003B7 758C00          1165     Portmatch5:     mov             TH0, #00h
0003BA 758A00          1166                             mov             TL0, #00h
0003BD C28D            1167                             clr             TCON_TF0
0003BF 308DFD          1168                             jnb             TCON_TF0, $
0003C2 209663          1169                             jb              ENCODER_MID, Portmatch22
0003C5 200007          1170                             jb              option_menu, Portmatch51
0003C8 D200       F    1171                             setb    SET_GAIN
0003CA 754770          1172                             mov             0x47, #70h
0003CD 8002            1173                             jmp             Portmatch6
                       1174     
0003CF D200       F    1175     Portmatch51:setb        encoder_middle
                       1176     
                       1177     
0003D1 758C00          1178     Portmatch6:     mov             TH0, #00h
0003D4 758A00          1179                             mov             TL0, #00h
0003D7 C28D            1180                             clr             TCON_TF0
0003D9 308DFD          1181                             jnb             TCON_TF0, $
0003DC D547F2          1182                             djnz    0x47, Portmatch6
0003DF 7547FF          1183                             mov             0x47, #0FFh
0003E2 75480F          1184                             mov             0x48, #0Fh
AX51 MACRO ASSEMBLER  MESSVERST_NEW                                                         01/07/24 00:14:01 PAGE    20

0003E5 75EDFF          1185                             mov             P1MAT, #0FFh
0003E8 8000            1186                             jmp             Portmatch20
                       1187     
                       1188     
0003EA 309602          1189     Portmatch20:jnb         ENCODER_mid, Portmatch21
0003ED 8039            1190                             jmp             Portmatch22
0003EF 308DF8          1191     Portmatch21:jnb         TCON_TF0, Portmatch20
0003F2 758C00          1192                             mov             TH0, #00h
0003F5 758A00          1193                             mov             TL0, #00h
0003F8 C28D            1194                             clr             TCON_TF0
0003FA E547            1195                             mov             A, 0x47
0003FC D547EB          1196                             djnz    0x47, Portmatch20
0003FF 7547FF          1197                             mov             0x47, #0FFh
000402 D548E5          1198                             djnz    0x48, Portmatch20
                       1199     
000405 300020          1200                             jnb             GAIN_SET, Portmatch22
000408 D200       F    1201                             setb    option_menu
00040A 7B00            1202                             mov             R3, #00h
00040C C200       F    1203                             clr             Init_Display_OK
00040E 75EDBF          1204                             mov             P1MAT, #0BFh
                       1205     
000411 754705          1206                                     mov             0x47, #05h
000414 758921          1207                                     mov             TMOD, #21h
000417 758C00          1208     Portmatch21_1:  mov             TH0, #00h
00041A 758A00          1209                                     mov             TL0, #00h
00041D C28D            1210                                     clr             TCON_TF0
00041F 308DFD          1211                                     jnb             TCON_TF0, $
000422 D547F2          1212                                     djnz    0x47, Portmatch21_1
000425 758922          1213                                     mov             TMOD, #22h
                       1214     
000428 D0D0            1215     Portmatch22:pop         PSW
00042A D0E0            1216                             pop             ACC
00042C 32              1217                             reti
                       1218     
                       1219     
                       1220     
00042D C0E0            1221     ADC_WINDOW:     push    ACC
00042F C0D0            1222                             push    PSW
000431 D200       F    1223                             setb    ADC_WC_SET
000433 C2EB            1224                             clr             ADC0CN0_ADWINT
000435 D0D0            1225                             pop             PSW
000437 D0E0            1226                             pop             ACC
000439 32              1227                             reti
                       1228     
00043A C0E0            1229     ADC_1:          push    ACC
00043C C0D0            1230                             push    PSW
00043E C2ED            1231                             clr     ADC0CN0_ADINT
000440 A9BE            1232                             mov             R1, ADC0H
000442 AABD            1233                             mov             R2, ADC0L
000444 D200       F    1234     ADC_end:        setb    ADC_warten
000446 D0D0            1235                             pop             PSW
000448 D0E0            1236                             pop             ACC
00044A 32              1237                             reti
                       1238     
                       1239     
                       1240     
                       1241     
                       1242     
00044B                 1243     Init:
                       1244     
00044B C2AF            1245                     CLR IE_EA
00044D 7597DE          1246                             MOV WDTCN,#0DEh
000450 7597AD          1247                             MOV WDTCN,#0ADh
AX51 MACRO ASSEMBLER  MESSVERST_NEW                                                         01/07/24 00:14:01 PAGE    21

000453 D2AF            1248                             SETB IE_EA
                       1249     
000455 758160          1250                             mov             SP, #60h
                       1251     
000458 75A900          1252                             mov             CLKSEL, #00h
                       1253     
                       1254     
00045B 75E103          1255                 mov         XBR0, #03h
00045E 75E200          1256                 mov         XBR1, #00h
000461 75E3C0          1257                 mov         XBR2, #0C0h
                       1258     
000464 75D40F          1259                             mov             P0SKIP, #0Fh
000467 75F1F9          1260                     mov     P0MDIN, #0F9h
00046A 75A451          1261                 mov         P0MDOUT, #51h
                       1262     
00046D 75F2FF          1263                 mov         P1MDIN,  #0FFh
000470 75A58F          1264                 mov         P1MDOUT, #08Fh
000473 75EE70          1265                             mov             P1MASK, #70h
                       1266     
000476 75A720          1267                 mov         SFRPAGE, #20h
000479 75F3FB          1268                 mov         P2MDIN,  #0FBh
00047C 75A67B          1269                 mov         P2MDOUT, #7Bh
00047F 75A700          1270                 mov         SFRPAGE, #00h
                       1271     
000482 75A720          1272                 mov         SFRPAGE, #20h
000485 75F4FF          1273                 mov         P3MDIN,  #0FFh
000488 759C0C          1274                 mov         P3MDOUT, #0Ch
00048B 75A700          1275                 mov         SFRPAGE, #00h
                       1276     
00048E 75D140          1277                 mov         REF0CN, #40h
000491 75A730          1278                 mov         SFRPAGE, #30h
000494 759180          1279                             mov             DAC0CF0, #80h
000497 759380          1280                             mov             DAC1CF0, #80h
00049A 759201          1281                             mov             DAC0CF1, #01h
00049D 759401          1282                             mov             DAC1CF1, #01h
0004A0 758400          1283                             mov             DAC0L, #00h
0004A3 758508          1284                             mov             DAC0H, #08h
0004A6 758900          1285                             mov             DAC1L, #00h
0004A9 758A08          1286                             mov             DAC1H, #08h
0004AC 758888          1287                             mov             DACGCF0, #88h
0004AF 75A700          1288                             mov             SFRPAGE, #00h
                       1289     
                       1290     
0004B2 759870          1291                             mov             SCON0, #70h
                       1292     
                       1293     
0004B5 758E02          1294                 mov         CKCON0, #02h
0004B8 7588D2          1295                             mov             TCON, #0D2h
0004BB 758922          1296                             mov             TMOD, #22h
0004BE 758DE4          1297                             mov             TH1, #0E4h
                       1298     
                       1299     
0004C1 75C804          1300                             mov             TMR2CN0, #04h
0004C4 75CB00          1301                             mov             TMR2RLH, #00h
0004C7 75CA00          1302                             mov             TMR2RLL, #00h
                       1303     
                       1304     
0004CA 759104          1305                             mov             TMR3CN0, #04h
                       1306     
                       1307     
                       1308     
0004CD 75A8E0          1309                             mov             IE, #0E0h
                       1310     
AX51 MACRO ASSEMBLER  MESSVERST_NEW                                                         01/07/24 00:14:01 PAGE    22

0004D0 75E60A          1311                             mov             EIE1, #0Ah
                       1312     
                       1313     
0004D3 75A147          1314                             mov             SPI0CFG, #47h
0004D6 75A201          1315                             mov             SPI0CKR, #01h
0004D9 75F803          1316                             mov             SPI0CN0, #03h
0004DC 75A720          1317                             mov             SFRPAGE,#20h
0004DF 759A00          1318                             mov             SPI0FCN0, #00h
0004E2 75A700          1319                             mov             SFRPAGE, #00h
                       1320     
                       1321     
0004E5 75E8A0          1322                             mov             ADC0CN0, #0A0h
0004E8 75DF1F          1323                             mov             ADC0CF2, #1Fh
0004EB C2EB            1324                             clr     ADC0CN0_ADWINT
0004ED C2ED            1325                             clr     ADC0CN0_ADINT
0004EF 75D180          1326                             mov             REF0CN, #80h
                       1327     
                       1328     
0004F2 7801            1329                             mov             R0,#01h
0004F4 7900            1330                             mov             R1, #00h
0004F6 7A00            1331                             mov             R2, #00h
0004F8 7B00            1332                             mov             R3, #00h
0004FA 7C00            1333                             mov             R4,     #00h
0004FC 7D08            1334                             mov             R5,     #08h
0004FE 7E00            1335                             mov             R6,     #00h
000500 7FFF            1336                             mov             R7, #0FFh
000502 750820          1337                             mov             0x08, #20h
                       1338     
000505 750A00          1339                             mov             0x0A, #00h
000508 750B00          1340                             mov             0x0B, #00h
00050B 750C00          1341                             mov             0x0C, #00h
00050E 750D00          1342                             mov             0x0D, #00h
000511 750E00          1343                             mov             0x0E, #00h
000514 750F02          1344                             mov             0x0F, #2d
                       1345     
                       1346     
000517 751000          1347                             mov             0x10,#00h
00051A 751100          1348                             mov             0x11,#00h
00051D 751200          1349                             mov             0x12,#00h
000520 751300          1350                             mov             0x13,#00h
                       1351     
                       1352     
000523 751500          1353                             mov             0x15,#00h
000526 751600          1354                             mov             0x16,#00h
000529 751700          1355                             mov             0x17,#00h
00052C 751800          1356                             mov             0x18,#00h
00052F 751900          1357                             mov             0x19,#00h
000532 751A00          1358                             mov             0x1A,#00h
                       1359     
                       1360     
000535 751D01          1361                             mov             0x1D, #1d
                       1362     
                       1363     
                       1364     
                       1365     
                       1366     
                       1367     
                       1368     
                       1369     
                       1370     
                       1371     
                       1372     
                       1373     
AX51 MACRO ASSEMBLER  MESSVERST_NEW                                                         01/07/24 00:14:01 PAGE    23

                       1374     
                       1375     
                       1376     
                       1377     
                       1378     
                       1379     
                       1380     
000538 753190          1381                             mov             0x31, #90h
00053B 753200          1382                             mov             0x32, #00h
00053E 753300          1383                             mov             0x33, #00h
000541 753400          1384                             mov             0x34, #00h
000544 753500          1385                             mov             0x35, #00h
000547 753600          1386                             mov             0x36, #00h
00054A 753700          1387                             mov             0x37, #00h
00054D 753800          1388                             mov             0x38, #00h
000550 753900          1389                             mov             0x39, #00h
000553 753A00          1390                             mov             0x3A, #00h
000556 753B00          1391                             mov             0x3B, #00h
000559 753C00          1392                             mov             0x3C, #00h
00055C 753D00          1393                             mov             0x3D, #00h
00055F 753E00          1394                             mov             0x3E, #00h
000562 753F00          1395                             mov             0x3F, #00h
000565 754000          1396                             mov             0x40, #00h
000568 754100          1397                             mov             0x41, #00h
                       1398     
00056B 754200          1399                             mov             0x42, #00h
00056E 754300          1400                             mov             0x43, #00h
000571 754400          1401                             mov             0x44, #00h
000574 754500          1402                             mov             0x45, #00h
000577 754600          1403                             mov             0x46, #00h
00057A 754700          1404                             mov             0x47, #00h
00057D 754800          1405                             mov             0x48, #00h
000580 754900          1406                             mov             0x49, #00h
000583 754A01          1407                             mov             0x4A, #01h
000586 754B01          1408                             mov             0x4B, #01d
000589 754C00          1409                             mov             0x4C, #00h
                       1410     
                       1411     
                       1412     
00058C 755000          1413                             mov             0x50, #00h
00058F 755100          1414                             mov             0x51, #00h
000592 755200          1415                             mov             0x52, #00h
000595 755300          1416                             mov             0x53, #00h
000598 755400          1417                             mov             0x54, #00h
00059B 755500          1418                             mov             0x55, #00h
00059E 755600          1419                             mov             0x56, #00h
0005A1 755700          1420                             mov             0x57, #00h
0005A4 755800          1421                             mov             0x58, #00h
0005A7 755900          1422                             mov             0x59, #00h
0005AA 755A00          1423                             mov             0x5A, #00h
0005AD 755B00          1424                             mov             0x5B, #00h
0005B0 755C00          1425                             mov             0x5C, #00h
0005B3 755D00          1426                             mov             0x5D, #00h
0005B6 755E00          1427                             mov             0x5E, #00h
0005B9 755F00          1428                             mov             0x5F, #00h
                       1429     
                       1430     
                       1431     
                       1432     
                       1433     
                       1434     
                       1435     
                       1436     
AX51 MACRO ASSEMBLER  MESSVERST_NEW                                                         01/07/24 00:14:01 PAGE    24

                       1437     
                       1438     
0005BC 756AFF          1439                             mov             0x6A, #0FFh
0005BF 756B03          1440                             mov             0x6B, #03h
0005C2 756C00          1441                             mov             0x6C, #00h
0005C5 756D00          1442                             mov             0x6D, #00h
0005C8 756E00          1443                             mov             0x6E, #00h
0005CB 756F00          1444                             mov             0x6F, #00h
0005CE 757000          1445                             mov             0x70, #00h
0005D1 757100          1446                             mov             0x71, #00h
0005D4 757200          1447                             mov             0x72, #00h
0005D7 757300          1448                             mov             0x73, #00h
0005DA 757400          1449                             mov             0x74, #00h
0005DD 757500          1450                             mov             0x75, #00h
0005E0 757600          1451                             mov             0x76, #00h
0005E3 757700          1452                             mov             0x77, #00h
0005E6 757800          1453                             mov             0x78, #00h
0005E9 757900          1454                             mov             0x79, #00h
0005EC 757A00          1455                             mov             0x7A, #00h
                       1456     
                       1457     
                       1458     
                       1459     
                       1460     
                       1461     
0005EF C200       F    1462                             clr             ERROR
                       1463     
0005F1 C293            1464                             clr             S1
0005F3 C292            1465                             clr             S2
                       1466                             ;clr            S3
                       1467     
                       1468     
                       1469     
                       1470     
                       1471     
                       1472     
                       1473     
                       1474     
0005F5 7F06            1475                             mov             R7, #06h
0005F7 208D02          1476     start0:         jb              TCON_TF0, start1
0005FA 80FB            1477                             jmp             start0
0005FC C28D            1478     start1:         clr             TCON_TF0
0005FE DFF7            1479                             djnz    R7, start0
000600 C200       F    1480                             clr             Auto_zero_on
000602 C200       F    1481                             clr             ADC_Pos
000604 C200       F    1482                             clr             ADC_Neg
000606 C200       F    1483                             clr             ADC_warten
000608 C200       F    1484                             clr             BIT_OVERVOLT
00060A C200       F    1485                             clr             BIT_OVERRANGE
00060C D297            1486                             setb    E
00060E C2A1            1487                             clr             RST_DISPLAY
000610 C200       F    1488                             clr             GAIN_SET
000612 C200       F    1489                             clr             OVERRANGE_N
000614 C200       F    1490                             clr             OVERRANGE_P
000616 C2B2            1491                             clr             OVERLOAD
000618 C200       F    1492                             clr             DAC0_max
00061A C200       F    1493                             clr             DAC0_min
00061C C200       F    1494                             clr             BIT_GAIN_500
00061E C200       F    1495                             clr             BIT_GAIN_1K
000620 C200       F    1496                             clr             BIT_GAIN_2K
000622 C200       F    1497                             clr             BIT_GAIN_5K
000624 C200       F    1498                             clr             BIT_GAIN_10K
000626 C200       F    1499                             clr             BIT_GAIN_25K
AX51 MACRO ASSEMBLER  MESSVERST_NEW                                                         01/07/24 00:14:01 PAGE    25

000628 C200       F    1500                             clr             BIT_GAIN_50K
00062A C200       F    1501                             clr             BIT_GAIN_60K
00062C C200       F    1502                             clr             press_screen_ok
00062E C2A4            1503                             clr             LED_GREEN
000630 C2A5            1504                             clr             LED_RED
000632 D2A6            1505                             setb    LED_WHITE
000634 C200       F    1506                             clr             display_clr
000636 C200       F    1507                             clr             SET_AUTOZERO
000638 C200       F    1508                             clr             wait_for_SPI
00063A C200       F    1509                             clr             SPI_Display
00063C C200       F    1510                             clr             Init_Display_OK
00063E D2A0            1511                             setb    CS_DISPLAY
000640 C200       F    1512                             clr             write_ok
000642 C200       F    1513                             clr             bootscreen_ok
000644 C200       F    1514                             clr             write_OH
000646 C200       F    1515                             clr             display_clear
000648 C200       F    1516                             clr             overheat
00064A D200       F    1517                             setb    output_off
00064C C200       F    1518                             clr             output_on
00064E C200       F    1519                             clr             set_R3
000650 C200       F    1520                             clr             encoder_up
000652 C200       F    1521                             clr             encoder_down
000654 C2A1            1522                             clr             RST_DISPLAY
000656 C200       F    1523                             clr             display_clr
000658 C200       F    1524                             clr             LCD_fertig
00065A C200       F    1525                             clr             SET_GAIN
00065C 75BE00          1526                             mov             ADC0H, #00h
00065F 75BD00          1527                             mov             ADC0L, #00h
000662 C200       F    1528                             clr             ADC_WC_SET
000664 C200       F    1529                             clr             bootscreen_loading
000666 C200       F    1530                             clr             KALIBRIEREN
000668 C200       F    1531                             clr             standby
00066A C200       F    1532                             clr             settings_saved
00066C C200       F    1533                             clr             selbsttest
00066E C200       F    1534                             clr             option_menu
000670 C200       F    1535                             clr             LOCKED
000672 C200       F    1536                             clr             Mittelwert_high
000674 C200       F    1537                             clr             RS485_mode
000676 C200       F    1538                             clr             PAGE2
000678 C200       F    1539                             clr             RS485_ID
00067A C200       F    1540                             clr             UART_SENDEN
                       1541     
00067C 75A730          1542                             mov             SFRPAGE, #30h
00067F AD85            1543                             mov             R5, DAC0H
000681 AE84            1544                             mov             R6, DAC0L
000683 75A700          1545                             mov             SFRPAGE, #00h
                       1546     
000686 C200       F    1547                             clr             SONDERMENU
000688 C200       F    1548                             clr             write_MENU
00068A C200       F    1549                             clr             R3_SONDERMENU
00068C D200       F    1550                             setb    OutputVoltage
                       1551     
                       1552     
00068E 758921          1553                             mov             TMOD, #21h
000691 758C00          1554                             mov             TH0, #00h
000694 758A00          1555                             mov             TL0, #00h
000697 C28D            1556                             clr             TCON_TF0
000699 308DFD          1557                             jnb             TCON_TF0, $
00069C 758922          1558                             mov             TMOD, #22h
00069F D2A1            1559                             setb    RST_DISPLAY
                       1560     
0006A1 208307          1561                             jb              AUTOZ_IN, start_01
0006A4 D200       F    1562                             setb    KALIBRIEREN
AX51 MACRO ASSEMBLER  MESSVERST_NEW                                                         01/07/24 00:14:01 PAGE    26

0006A6 C200       F    1563                             clr             KALIB_end
0006A8 020000     F    1564                             ljmp    main50
                       1565     
                       1566     
0006AB                 1567     start_01:
0006AB E4              1568                             clr             A
0006AC 90F000          1569                             MOV     DPTR,#0F000h
0006AF 93              1570                             MOVC    A, @A+DPTR
0006B0 B4040D          1571                             cjne    A, #04h, start_02
0006B3 D200       F    1572                             setb    RS485_mode
                       1573     
0006B5 D2AC            1574                             setb    IE_ES0
0006B7 C2A3            1575                             clr             DE_RE
0006B9 751D04          1576                             mov             0x1D, #04h
0006BC D200       F    1577                             setb    PAGE2
0006BE D200       F    1578                             setb    SET_GAIN
                       1579     
0006C0 E4              1580     start_02:       clr             A
0006C1 90F001          1581                             MOV     DPTR,#0F001h
0006C4 93              1582                             MOVC    A, @A+DPTR
0006C5 C3              1583                             clr             C
0006C6 B40900          1584                             cjne    A, #09h, start_03
0006C9 4005            1585     start_03:       jc              start_04
0006CB 754B01          1586                             mov             0x4B, #01h
0006CE 8002            1587                             jmp             start_05
0006D0 F54B            1588     start_04:       mov             0x4B, A
                       1589     
                       1590     
0006D2 75FE08          1591     start_05:       mov             P0MASK, #08h
0006D5 E4              1592                             clr             A
0006D6 90F910          1593                             MOV     DPTR,#0F910h
0006D9 93              1594                             MOVC    A, @A+DPTR
0006DA F532            1595                             mov             0x32, A
0006DC E4              1596                             clr             A
0006DD 90F911          1597                             MOV     DPTR,#0F911h
0006E0 93              1598                             MOVC    A, @A+DPTR
0006E1 F533            1599                             mov             0x33, A
0006E3 E4              1600                             clr             A
                       1601     
0006E4 90F912          1602                             MOV     DPTR,#0F912h
0006E7 93              1603                             MOVC    A, @A+DPTR
0006E8 F534            1604                             mov             0x34, A
0006EA E4              1605                             clr             A
0006EB 90F913          1606                             MOV     DPTR,#0F913h
0006EE 93              1607                             MOVC    A, @A+DPTR
0006EF F535            1608                             mov             0x35, A
0006F1 E4              1609                             clr             A
                       1610     
0006F2 90F914          1611                             MOV     DPTR,#0F914h
0006F5 93              1612                             MOVC    A, @A+DPTR
0006F6 F536            1613                             mov             0x36, A
0006F8 E4              1614                             clr             A
0006F9 90F915          1615                             MOV     DPTR,#0F915h
0006FC 93              1616                             MOVC    A, @A+DPTR
0006FD F537            1617                             mov             0x37, A
0006FF E4              1618                             clr             A
                       1619     
000700 90F916          1620                             MOV     DPTR,#0F916h
000703 93              1621                             MOVC    A, @A+DPTR
000704 F538            1622                             mov             0x38, A
000706 E4              1623                             clr             A
000707 90F917          1624                             MOV     DPTR,#0F917h
00070A 93              1625                             MOVC    A, @A+DPTR
AX51 MACRO ASSEMBLER  MESSVERST_NEW                                                         01/07/24 00:14:01 PAGE    27

00070B F539            1626                             mov             0x39, A
00070D E4              1627                             clr             A
                       1628     
00070E 90F918          1629                             MOV     DPTR,#0F918h
000711 93              1630                             MOVC    A, @A+DPTR
000712 F53A            1631                             mov             0x3A, A
000714 E4              1632                             clr             A
000715 90F919          1633                             MOV     DPTR,#0F919h
000718 93              1634                             MOVC    A, @A+DPTR
000719 F53B            1635                             mov             0x3B, A
00071B E4              1636                             clr             A
                       1637     
00071C 90F91A          1638                             MOV     DPTR,#0F91Ah
00071F 93              1639                             MOVC    A, @A+DPTR
000720 F53C            1640                             mov             0x3C, A
000722 E4              1641                             clr             A
000723 90F91B          1642                             MOV     DPTR,#0F91Bh
000726 93              1643                             MOVC    A, @A+DPTR
000727 F53D            1644                             mov             0x3D, A
000729 E4              1645                             clr             A
                       1646     
00072A 90F91C          1647                             MOV     DPTR,#0F91Ch
00072D 93              1648                             MOVC    A, @A+DPTR
00072E F53E            1649                             mov             0x3E, A
000730 E4              1650                             clr             A
000731 90F91D          1651                             MOV     DPTR,#0F91Dh
000734 93              1652                             MOVC    A, @A+DPTR
000735 F53F            1653                             mov             0x3F, A
000737 E4              1654                             clr             A
                       1655     
000738 90F91E          1656                             MOV     DPTR,#0F91Eh
00073B 93              1657                             MOVC    A, @A+DPTR
00073C F540            1658                             mov             0x40, A
00073E E4              1659                             clr             A
00073F 90F91F          1660                             MOV     DPTR,#0F91Fh
000742 93              1661                             MOVC    A, @A+DPTR
000743 F541            1662                             mov             0x41, A
000745 E4              1663                             clr             A
                       1664     
                       1665     
                       1666     
000746 90F920          1667                             MOV     DPTR,#0F920h
000749 93              1668                             MOVC    A, @A+DPTR
00074A F552            1669                             mov             0x52, A
00074C E4              1670                             clr             A
00074D 90F921          1671                             MOV     DPTR,#0F921h
000750 93              1672                             MOVC    A, @A+DPTR
000751 F553            1673                             mov             0x53, A
000753 E4              1674                             clr             A
                       1675     
000754 90F922          1676                             MOV     DPTR,#0F922h
000757 93              1677                             MOVC    A, @A+DPTR
000758 F554            1678                             mov             0x54, A
00075A E4              1679                             clr             A
00075B 90F923          1680                             MOV     DPTR,#0F923h
00075E 93              1681                             MOVC    A, @A+DPTR
00075F F555            1682                             mov             0x55, A
000761 E4              1683                             clr             A
                       1684     
000762 90F924          1685                             MOV     DPTR,#0F924h
000765 93              1686                             MOVC    A, @A+DPTR
000766 F556            1687                             mov             0x56, A
000768 E4              1688                             clr             A
AX51 MACRO ASSEMBLER  MESSVERST_NEW                                                         01/07/24 00:14:01 PAGE    28

000769 90F925          1689                             MOV     DPTR,#0F925h
00076C 93              1690                             MOVC    A, @A+DPTR
00076D F557            1691                             mov             0x57, A
00076F E4              1692                             clr             A
                       1693     
000770 90F926          1694                             MOV     DPTR,#0F926h
000773 93              1695                             MOVC    A, @A+DPTR
000774 F558            1696                             mov             0x58, A
000776 E4              1697                             clr             A
000777 90F927          1698                             MOV     DPTR,#0F927h
00077A 93              1699                             MOVC    A, @A+DPTR
00077B F559            1700                             mov             0x59, A
00077D E4              1701                             clr             A
                       1702     
00077E 90F928          1703                             MOV     DPTR,#0F928h
000781 93              1704                             MOVC    A, @A+DPTR
000782 F55A            1705                             mov             0x5A, A
000784 E4              1706                             clr             A
000785 90F929          1707                             MOV     DPTR,#0F929h
000788 93              1708                             MOVC    A, @A+DPTR
000789 F55B            1709                             mov             0x5B, A
00078B E4              1710                             clr             A
                       1711     
00078C 90F92A          1712                             MOV     DPTR,#0F92Ah
00078F 93              1713                             MOVC    A, @A+DPTR
000790 F55C            1714                             mov             0x5C, A
000792 E4              1715                             clr             A
000793 90F92B          1716                             MOV     DPTR,#0F92Bh
000796 93              1717                             MOVC    A, @A+DPTR
000797 F55D            1718                             mov             0x5D, A
000799 E4              1719                             clr             A
                       1720     
00079A 90F92C          1721                             MOV     DPTR,#0F92Ch
00079D 93              1722                             MOVC    A, @A+DPTR
00079E F55E            1723                             mov             0x5E, A
0007A0 E4              1724                             clr             A
0007A1 90F92D          1725                             MOV     DPTR,#0F92Dh
0007A4 93              1726                             MOVC    A, @A+DPTR
0007A5 F55F            1727                             mov             0x5F, A
0007A7 E4              1728                             clr             A
                       1729     
0007A8 90F92E          1730                             MOV     DPTR,#0F92Eh
0007AB 93              1731                             MOVC    A, @A+DPTR
0007AC F550            1732                             mov             0x50, A
0007AE E4              1733                             clr             A
0007AF 90F92F          1734                             MOV     DPTR,#0F92Fh
0007B2 93              1735                             MOVC    A, @A+DPTR
0007B3 F551            1736                             mov             0x51, A
0007B5 E4              1737                             clr             A
                       1738     
0007B6 90F200          1739                             MOV     DPTR,#0F200h
0007B9 93              1740                             MOVC    A, @A+DPTR
                       1741     
0007BA B40117          1742                             cjne    A, #1d, start_06
0007BD D200       F    1743                             setb    BIT_GAIN_500
0007BF C200       F    1744                             clr             BIT_GAIN_1K
0007C1 C200       F    1745                             clr             BIT_GAIN_2K
0007C3 C200       F    1746                             clr             BIT_GAIN_5K
0007C5 C200       F    1747                             clr             BIT_GAIN_10K
0007C7 C200       F    1748                             clr             BIT_GAIN_25K
0007C9 C200       F    1749                             clr             BIT_GAIN_50K
0007CB C200       F    1750                             clr             BIT_GAIN_60K
0007CD 7C00            1751                             mov             R4,     #00h
AX51 MACRO ASSEMBLER  MESSVERST_NEW                                                         01/07/24 00:14:01 PAGE    29

0007CF 8C1F            1752                             mov             0x1F, R4
0007D1 020000     F    1753                             ljmp    main50
0007D4 B40217          1754     start_06:       cjne    A, #2d, start_07
0007D7 C200       F    1755                             clr             BIT_GAIN_500
0007D9 D200       F    1756                             setb    BIT_GAIN_1K
0007DB C200       F    1757                             clr             BIT_GAIN_2K
0007DD C200       F    1758                             clr             BIT_GAIN_5K
0007DF C200       F    1759                             clr             BIT_GAIN_10K
0007E1 C200       F    1760                             clr             BIT_GAIN_25K
0007E3 C200       F    1761                             clr             BIT_GAIN_50K
0007E5 C200       F    1762                             clr             BIT_GAIN_60K
0007E7 7C01            1763                             mov             R4,     #01h
0007E9 8C1F            1764                             mov             0x1F, R4
0007EB 020000     F    1765                             ljmp    main50
0007EE B40317          1766     start_07:       cjne    A, #3d, start_08
0007F1 C200       F    1767                             clr             BIT_GAIN_500
0007F3 C200       F    1768                             clr             BIT_GAIN_1K
0007F5 D200       F    1769                             setb    BIT_GAIN_2K
0007F7 C200       F    1770                             clr             BIT_GAIN_5K
0007F9 C200       F    1771                             clr             BIT_GAIN_10K
0007FB C200       F    1772                             clr             BIT_GAIN_25K
0007FD C200       F    1773                             clr             BIT_GAIN_50K
0007FF C200       F    1774                             clr             BIT_GAIN_60K
000801 7C02            1775                             mov             R4,     #02h
000803 8C1F            1776                             mov             0x1F, R4
000805 020000     F    1777                             ljmp    main50
000808 B40417          1778     start_08:       cjne    A, #4d, start_09
00080B C200       F    1779                             clr             BIT_GAIN_500
00080D C200       F    1780                             clr             BIT_GAIN_1K
00080F C200       F    1781                             clr             BIT_GAIN_2K
000811 D200       F    1782                             setb    BIT_GAIN_5K
000813 C200       F    1783                             clr             BIT_GAIN_10K
000815 C200       F    1784                             clr             BIT_GAIN_25K
000817 C200       F    1785                             clr             BIT_GAIN_50K
000819 C200       F    1786                             clr             BIT_GAIN_60K
00081B 7C03            1787                             mov             R4,     #03h
00081D 8C1F            1788                             mov             0x1F, R4
00081F 020000     F    1789                             ljmp    main50
000822 B40517          1790     start_09:       cjne    A, #5d, start_10
000825 C200       F    1791                             clr             BIT_GAIN_500
000827 C200       F    1792                             clr             BIT_GAIN_1K
000829 C200       F    1793                             clr             BIT_GAIN_2K
00082B C200       F    1794                             clr             BIT_GAIN_5K
00082D D200       F    1795                             setb    BIT_GAIN_10K
00082F C200       F    1796                             clr             BIT_GAIN_25K
000831 C200       F    1797                             clr             BIT_GAIN_50K
000833 C200       F    1798                             clr             BIT_GAIN_60K
000835 7C04            1799                             mov             R4,     #04h
000837 8C1F            1800                             mov             0x1F, R4
000839 020000     F    1801                             ljmp    main50
00083C B40617          1802     start_10:       cjne    A, #6d, start_11
00083F C200       F    1803                             clr             BIT_GAIN_500
000841 C200       F    1804                             clr             BIT_GAIN_1K
000843 C200       F    1805                             clr             BIT_GAIN_2K
000845 C200       F    1806                             clr             BIT_GAIN_5K
000847 C200       F    1807                             clr             BIT_GAIN_10K
000849 D200       F    1808                             setb    BIT_GAIN_25K
00084B C200       F    1809                             clr             BIT_GAIN_50K
00084D C200       F    1810                             clr             BIT_GAIN_60K
00084F 7C05            1811                             mov             R4,     #05h
000851 8C1F            1812                             mov             0x1F, R4
000853 020000     F    1813                             ljmp    main50
000856 B40717          1814     start_11:       cjne    A, #7d, start_12
AX51 MACRO ASSEMBLER  MESSVERST_NEW                                                         01/07/24 00:14:01 PAGE    30

000859 C200       F    1815                             clr             BIT_GAIN_500
00085B C200       F    1816                             clr             BIT_GAIN_1K
00085D C200       F    1817                             clr             BIT_GAIN_2K
00085F C200       F    1818                             clr             BIT_GAIN_5K
000861 C200       F    1819                             clr             BIT_GAIN_10K
000863 C200       F    1820                             clr             BIT_GAIN_25K
000865 D200       F    1821                             setb    BIT_GAIN_50K
000867 C200       F    1822                             clr             BIT_GAIN_60K
000869 7C06            1823                             mov             R4,     #06h
00086B 8C1F            1824                             mov             0x1F, R4
00086D 020000     F    1825                             ljmp    main50
000870 B40814          1826     start_12:       cjne    A, #8d, start_13
000873 C200       F    1827                             clr             BIT_GAIN_500
000875 C200       F    1828                             clr             BIT_GAIN_1K
000877 C200       F    1829                             clr             BIT_GAIN_2K
000879 C200       F    1830                             clr             BIT_GAIN_5K
00087B C200       F    1831                             clr             BIT_GAIN_10K
00087D C200       F    1832                             clr             BIT_GAIN_25K
00087F C200       F    1833                             clr             BIT_GAIN_50K
000881 D200       F    1834                             setb    BIT_GAIN_60K
000883 7C07            1835                             mov             R4,     #07h
000885 8C1F            1836                             mov             0x1F, R4
000887 020000     F    1837     start_13:       ljmp    main50
                       1838     
                       1839     
                       1840     
                       1841     
                       1842     
00088A 300004          1843     main:           jnb             RS485_DATA, UART_00
00088D C200       F    1844                             clr             RS485_DATA
00088F 8003            1845                             jmp             UART_500
000891 020000     F    1846     UART_00:        ljmp    main0
                       1847     
000894 757F01          1848     UART_500:       mov             0x7F, #1d
000897 900000          1849                             mov             DPTR, #0000h
00089A E57F            1850     UART_500_1:     mov             A, 0x7F
00089C B4040D          1851                             cjne    A, #4d, UART_500_2
00089F E54B            1852                             mov             A, 0x4B
0008A1 120000     F    1853                             call    TAB_HEX
0008A4 F5F0            1854                             mov             B, A
0008A6 E0              1855                             movx    A, @DPTR
0008A7 B5F028          1856                             cjne    A, B, UART_1K
0008AA 8008            1857                             jmp             UART_500_3
0008AC 1100       F    1858     UART_500_2:     call    UART_500_4
0008AE F5F0            1859                             mov             B, A
0008B0 E0              1860                             movx    A, @DPTR
0008B1 B5F01E          1861                             cjne    A, B, UART_1K
0008B4 A3              1862     UART_500_3:     inc             DPTR
0008B5 057F            1863                             inc             0x7F
0008B7 E57F            1864                             mov             A, 0x7F
0008B9 B411DE          1865                             cjne    A, #17d,UART_500_1
0008BC 020000     F    1866                             ljmp    set_Gain500
0008BF 83              1867     UART_500_4:     movc    A,@A+PC
0008C0 22              1868                             ret
0008C1 44              1869                             DB              44h
0008C2 56              1870                             DB              56h
0008C3 3A              1871                             DB              3Ah
0008C4 20              1872                             DB              20h
0008C5 20              1873                             DB              20h
0008C6 35              1874                             DB              35h
0008C7 30              1875                             DB              30h
0008C8 30              1876                             DB              30h
0008C9 00              1877                             DB              00h
AX51 MACRO ASSEMBLER  MESSVERST_NEW                                                         01/07/24 00:14:01 PAGE    31

0008CA 00              1878                             DB              00h
0008CB 00              1879                             DB              00h
0008CC 00              1880                             DB              00h
0008CD 00              1881                             DB              00h
0008CE 00              1882                             DB              00h
0008CF 00              1883                             DB              00h
0008D0 00              1884                             DB              00h
0008D1 22              1885                             ret
                       1886     
                       1887     
0008D2 757F01          1888     UART_1K:        mov             0x7F, #1d
0008D5 900000          1889                             mov             DPTR, #0000h
0008D8 E57F            1890     UART_1K_1:      mov             A, 0x7F
0008DA B4040D          1891                             cjne    A, #4d, UART_1K_2
0008DD E54B            1892                             mov             A, 0x4B
0008DF 120000     F    1893                             call    TAB_HEX
0008E2 F5F0            1894                             mov             B, A
0008E4 E0              1895                             movx    A, @DPTR
0008E5 B5F028          1896                             cjne    A, B, UART_2K
0008E8 8008            1897                             jmp             UART_1K_3
0008EA 1100       F    1898     UART_1K_2:      call    UART_1K_4
0008EC F5F0            1899                             mov             B, A
0008EE E0              1900                             movx    A, @DPTR
0008EF B5F01E          1901                             cjne    A, B, UART_2K
0008F2 A3              1902     UART_1K_3:      inc             DPTR
0008F3 057F            1903                             inc             0x7F
0008F5 E57F            1904                             mov             A, 0x7F
0008F7 B411DE          1905                             cjne    A, #17d,UART_1K_1
0008FA 020000     F    1906                             ljmp    set_Gain1K
0008FD 83              1907     UART_1K_4:      movc    A,@A+PC
0008FE 22              1908                             ret
0008FF 44              1909                             DB              44h
000900 56              1910                             DB              56h
000901 3A              1911                             DB              3Ah
000902 20              1912                             DB              20h
000903 20              1913                             DB              20h
000904 31              1914                             DB              31h
000905 30              1915                             DB              30h
000906 30              1916                             DB              30h
000907 30              1917                             DB              30h
000908 00              1918                             DB              00h
000909 00              1919                             DB              00h
00090A 00              1920                             DB              00h
00090B 00              1921                             DB              00h
00090C 00              1922                             DB              00h
00090D 00              1923                             DB              00h
00090E 00              1924                             DB              00h
00090F 22              1925                             ret
                       1926     
                       1927     
000910 757F01          1928     UART_2K:        mov             0x7F, #1d
000913 900000          1929                             mov             DPTR, #0000h
000916 E57F            1930     UART_2K_1:      mov             A, 0x7F
000918 B4040D          1931                             cjne    A, #4d, UART_2K_2
00091B E54B            1932                             mov             A, 0x4B
00091D 120000     F    1933                             call    TAB_HEX
000920 F5F0            1934                             mov             B, A
000922 E0              1935                             movx    A, @DPTR
000923 B5F028          1936                             cjne    A, B, UART_5K
000926 8008            1937                             jmp             UART_2K_3
000928 1100       F    1938     UART_2K_2:      call    UART_2K_4
00092A F5F0            1939                             mov             B, A
00092C E0              1940                             movx    A, @DPTR
AX51 MACRO ASSEMBLER  MESSVERST_NEW                                                         01/07/24 00:14:01 PAGE    32

00092D B5F01E          1941                             cjne    A, B, UART_5K
000930 A3              1942     UART_2K_3:      inc             DPTR
000931 057F            1943                             inc             0x7F
000933 E57F            1944                             mov             A, 0x7F
000935 B411DE          1945                             cjne    A, #17d,UART_2K_1
000938 020000     F    1946                             ljmp    set_Gain2K
00093B 83              1947     UART_2K_4:      movc    A,@A+PC
00093C 22              1948                             ret
00093D 44              1949                             DB              44h
00093E 56              1950                             DB              56h
00093F 3A              1951                             DB              3Ah
000940 20              1952                             DB              20h
000941 20              1953                             DB              20h
000942 32              1954                             DB              32h
000943 30              1955                             DB              30h
000944 30              1956                             DB              30h
000945 30              1957                             DB              30h
000946 00              1958                             DB              00h
000947 00              1959                             DB              00h
000948 00              1960                             DB              00h
000949 00              1961                             DB              00h
00094A 00              1962                             DB              00h
00094B 00              1963                             DB              00h
00094C 00              1964                             DB              00h
00094D 22              1965                             ret
                       1966     
                       1967     
00094E 757F01          1968     UART_5K:        mov             0x7F, #1d
000951 900000          1969                             mov             DPTR, #0000h
000954 E57F            1970     UART_5K_1:      mov             A, 0x7F
000956 B4040D          1971                             cjne    A, #4d, UART_5K_2
000959 E54B            1972                             mov             A, 0x4B
00095B 120000     F    1973                             call    TAB_HEX
00095E F5F0            1974                             mov             B, A
000960 E0              1975                             movx    A, @DPTR
000961 B5F028          1976                             cjne    A, B, UART_10K
000964 8008            1977                             jmp             UART_5K_3
000966 1100       F    1978     UART_5K_2:      call    UART_5K_4
000968 F5F0            1979                             mov             B, A
00096A E0              1980                             movx    A, @DPTR
00096B B5F01E          1981                             cjne    A, B, UART_10K
00096E A3              1982     UART_5K_3:      inc             DPTR
00096F 057F            1983                             inc             0x7F
000971 E57F            1984                             mov             A, 0x7F
000973 B411DE          1985                             cjne    A, #17d,UART_5K_1
000976 020000     F    1986                             ljmp    set_Gain5K
000979 83              1987     UART_5K_4:      movc    A,@A+PC
00097A 22              1988                             ret
00097B 44              1989                             DB              44h
00097C 56              1990                             DB              56h
00097D 3A              1991                             DB              3Ah
00097E 20              1992                             DB              20h
00097F 20              1993                             DB              20h
000980 35              1994                             DB              35h
000981 30              1995                             DB              30h
000982 30              1996                             DB              30h
000983 30              1997                             DB              30h
000984 00              1998                             DB              00h
000985 00              1999                             DB              00h
000986 00              2000                             DB              00h
000987 00              2001                             DB              00h
000988 00              2002                             DB              00h
000989 00              2003                             DB              00h
AX51 MACRO ASSEMBLER  MESSVERST_NEW                                                         01/07/24 00:14:01 PAGE    33

00098A 00              2004                             DB              00h
00098B 22              2005                             ret
                       2006     
                       2007     
00098C 757F01          2008     UART_10K:       mov             0x7F, #1d
00098F 900000          2009                             mov             DPTR, #0000h
000992 E57F            2010     UART_10K_1:     mov             A, 0x7F
000994 B4040D          2011                             cjne    A, #4d, UART_10K_2
000997 E54B            2012                             mov             A, 0x4B
000999 120000     F    2013                             call    TAB_HEX
00099C F5F0            2014                             mov             B, A
00099E E0              2015                             movx    A, @DPTR
00099F B5F028          2016                             cjne    A, B, UART_25K
0009A2 8008            2017                             jmp             UART_10K_3
0009A4 1100       F    2018     UART_10K_2:     call    UART_10K_4
0009A6 F5F0            2019                             mov             B, A
0009A8 E0              2020                             movx    A, @DPTR
0009A9 B5F01E          2021                             cjne    A, B, UART_25K
0009AC A3              2022     UART_10K_3:     inc             DPTR
0009AD 057F            2023                             inc             0x7F
0009AF E57F            2024                             mov             A, 0x7F
0009B1 B411DE          2025                             cjne    A, #17d,UART_10K_1
0009B4 020000     F    2026                             ljmp    set_Gain10K
0009B7 83              2027     UART_10K_4:     movc    A,@A+PC
0009B8 22              2028                             ret
0009B9 44              2029                             DB              44h
0009BA 56              2030                             DB              56h
0009BB 3A              2031                             DB              3Ah
0009BC 20              2032                             DB              20h
0009BD 20              2033                             DB              20h
0009BE 31              2034                             DB              31h
0009BF 30              2035                             DB              30h
0009C0 30              2036                             DB              30h
0009C1 30              2037                             DB              30h
0009C2 30              2038                             DB              30h
0009C3 00              2039                             DB              00h
0009C4 00              2040                             DB              00h
0009C5 00              2041                             DB              00h
0009C6 00              2042                             DB              00h
0009C7 00              2043                             DB              00h
0009C8 00              2044                             DB              00h
0009C9 22              2045                             ret
                       2046     
                       2047     
0009CA 757F01          2048     UART_25K:       mov             0x7F, #1d
0009CD 900000          2049                             mov             DPTR, #0000h
0009D0 E57F            2050     UART_25K_1:     mov             A, 0x7F
0009D2 B4040D          2051                             cjne    A, #4d, UART_25K_2
0009D5 E54B            2052                             mov             A, 0x4B
0009D7 120000     F    2053                             call    TAB_HEX
0009DA F5F0            2054                             mov             B, A
0009DC E0              2055                             movx    A, @DPTR
0009DD B5F028          2056                             cjne    A, B, UART_50K
0009E0 8008            2057                             jmp             UART_25K_3
0009E2 1100       F    2058     UART_25K_2:     call    UART_25K_4
0009E4 F5F0            2059                             mov             B, A
0009E6 E0              2060                             movx    A, @DPTR
0009E7 B5F01E          2061                             cjne    A, B, UART_50K
0009EA A3              2062     UART_25K_3:     inc             DPTR
0009EB 057F            2063                             inc             0x7F
0009ED E57F            2064                             mov             A, 0x7F
0009EF B411DE          2065                             cjne    A, #17d,UART_25K_1
0009F2 020000     F    2066                             ljmp    set_Gain25K
AX51 MACRO ASSEMBLER  MESSVERST_NEW                                                         01/07/24 00:14:01 PAGE    34

0009F5 83              2067     UART_25K_4:     movc    A,@A+PC
0009F6 22              2068                             ret
0009F7 44              2069                             DB              44h
0009F8 56              2070                             DB              56h
0009F9 3A              2071                             DB              3Ah
0009FA 20              2072                             DB              20h
0009FB 20              2073                             DB              20h
0009FC 32              2074                             DB              32h
0009FD 30              2075                             DB              30h
0009FE 30              2076                             DB              30h
0009FF 30              2077                             DB              30h
000A00 30              2078                             DB              30h
000A01 00              2079                             DB              00h
000A02 00              2080                             DB              00h
000A03 00              2081                             DB              00h
000A04 00              2082                             DB              00h
000A05 00              2083                             DB              00h
000A06 00              2084                             DB              00h
000A07 22              2085                             ret
                       2086     
                       2087     
000A08 757F01          2088     UART_50K:       mov             0x7F, #1d
000A0B 900000          2089                             mov             DPTR, #0000h
000A0E E57F            2090     UART_50K_1:     mov             A, 0x7F
000A10 B4040D          2091                             cjne    A, #4d, UART_50K_2
000A13 E54B            2092                             mov             A, 0x4B
000A15 120000     F    2093                             call    TAB_HEX
000A18 F5F0            2094                             mov             B, A
000A1A E0              2095                             movx    A, @DPTR
000A1B B5F028          2096                             cjne    A, B, Voltage
000A1E 8008            2097                             jmp             UART_50K_3
000A20 1100       F    2098     UART_50K_2:     call    UART_50K_4
000A22 F5F0            2099                             mov             B, A
000A24 E0              2100                             movx    A, @DPTR
000A25 B5F01E          2101                             cjne    A, B, Voltage
000A28 A3              2102     UART_50K_3:     inc             DPTR
000A29 057F            2103                             inc             0x7F
000A2B E57F            2104                             mov             A, 0x7F
000A2D B411DE          2105                             cjne    A, #17d,UART_50K_1
000A30 020000     F    2106                             ljmp    set_Gain50K
000A33 83              2107     UART_50K_4:     movc    A,@A+PC
000A34 22              2108                             ret
000A35 44              2109                             DB              44h
000A36 56              2110                             DB              56h
000A37 3A              2111                             DB              3Ah
000A38 20              2112                             DB              20h
000A39 20              2113                             DB              20h
000A3A 34              2114                             DB              34h
000A3B 30              2115                             DB              30h
000A3C 30              2116                             DB              30h
000A3D 30              2117                             DB              30h
000A3E 30              2118                             DB              30h
000A3F 00              2119                             DB              00h
000A40 00              2120                             DB              00h
000A41 00              2121                             DB              00h
000A42 00              2122                             DB              00h
000A43 00              2123                             DB              00h
000A44 00              2124                             DB              00h
000A45 22              2125                             ret
                       2126     
                       2127     
000A46 757F01          2128     Voltage:        mov             0x7F, #1d
000A49 900000          2129                             mov             DPTR, #0000h
AX51 MACRO ASSEMBLER  MESSVERST_NEW                                                         01/07/24 00:14:01 PAGE    35

000A4C E57F            2130     Voltage_1:      mov             A, 0x7F
000A4E B4040D          2131                             cjne    A, #4d, Voltage_2
000A51 E54B            2132                             mov             A, 0x4B
000A53 120000     F    2133                             call    TAB_HEX
000A56 F5F0            2134                             mov             B, A
000A58 E0              2135                             movx    A, @DPTR
000A59 B5F028          2136                             cjne    A, B, AUTOZERO
000A5C 8008            2137                             jmp             Voltage_3
000A5E 1100       F    2138     Voltage_2:      call    Voltage_4
000A60 F5F0            2139                             mov             B, A
000A62 E0              2140                             movx    A, @DPTR
000A63 B5F01E          2141                             cjne    A, B, AUTOZERO
000A66 A3              2142     Voltage_3:      inc             DPTR
000A67 057F            2143                             inc             0x7F
000A69 E57F            2144                             mov             A, 0x7F
000A6B B411DE          2145                             cjne    A, #17d,Voltage_1
000A6E 020000     F    2146                             ljmp    UART_VOLT_1
000A71 83              2147     Voltage_4:      movc    A,@A+PC
000A72 22              2148                             ret
000A73 44              2149                             DB              44h
000A74 56              2150                             DB              56h
000A75 3A              2151                             DB              3Ah
000A76 20              2152                             DB              20h
000A77 20              2153                             DB              20h
000A78 56              2154                             DB              56h
000A79 4F              2155                             DB              4Fh
000A7A 4C              2156                             DB              4Ch
000A7B 54              2157                             DB              54h
000A7C 3F              2158                             DB              3Fh
000A7D 00              2159                             DB              00h
000A7E 00              2160                             DB              00h
000A7F 00              2161                             DB              00h
000A80 00              2162                             DB              00h
000A81 00              2163                             DB              00h
000A82 00              2164                             DB              00h
000A83 22              2165                             ret
                       2166     
                       2167     
000A84 757F01          2168     AUTOZERO:       mov             0x7F, #1d
000A87 900000          2169                             mov             DPTR, #0000h
000A8A E57F            2170     AUTOZERO_1:     mov             A, 0x7F
000A8C B4040D          2171                             cjne    A, #4d, AUTOZERO_2
000A8F E54B            2172                             mov             A, 0x4B
000A91 120000     F    2173                             call    TAB_HEX
000A94 F5F0            2174                             mov             B, A
000A96 E0              2175                             movx    A, @DPTR
000A97 B5F02A          2176                             cjne    A, B, RESET
000A9A 8008            2177                             jmp             AUTOZERO_3
000A9C 1100       F    2178     AUTOZERO_2:     call    AUTOZERO_4
000A9E F5F0            2179                             mov             B, A
000AA0 E0              2180                             movx    A, @DPTR
000AA1 B5F020          2181                             cjne    A, B, RESET
000AA4 A3              2182     AUTOZERO_3:     inc             DPTR
000AA5 057F            2183                             inc             0x7F
000AA7 E57F            2184                             mov             A, 0x7F
000AA9 B411DE          2185                             cjne    A, #17d,AUTOZERO_1
000AAC D200       F    2186                             setb    SET_AUTOZERO
000AAE 020000     F    2187                             ljmp    main
000AB1 83              2188     AUTOZERO_4:     movc    A,@A+PC
000AB2 22              2189                             ret
000AB3 44              2190                             DB              44h
000AB4 56              2191                             DB              56h
000AB5 3A              2192                             DB              3Ah
AX51 MACRO ASSEMBLER  MESSVERST_NEW                                                         01/07/24 00:14:01 PAGE    36

000AB6 20              2193                             DB              20h
000AB7 20              2194                             DB              20h
000AB8 41              2195                             DB              41h
000AB9 5A              2196                             DB              5Ah
000ABA 00              2197                             DB              00h
000ABB 00              2198                             DB              00h
000ABC 00              2199                             DB              00h
000ABD 00              2200                             DB              00h
000ABE 00              2201                             DB              00h
000ABF 00              2202                             DB              00h
000AC0 00              2203                             DB              00h
000AC1 00              2204                             DB              00h
000AC2 00              2205                             DB              00h
000AC3 22              2206                             ret
                       2207     
                       2208     
000AC4 757F01          2209     RESET:          mov             0x7F, #1d
000AC7 900000          2210                             mov             DPTR, #0000h
000ACA E57F            2211     RESET_1:        mov             A, 0x7F
000ACC B4040D          2212                             cjne    A, #4d, RESET_2
000ACF E54B            2213                             mov             A, 0x4B
000AD1 120000     F    2214                             call    TAB_HEX
000AD4 F5F0            2215                             mov             B, A
000AD6 E0              2216                             movx    A, @DPTR
000AD7 B5F030          2217                             cjne    A, B, QUESTION
000ADA 8008            2218                             jmp             RESET_3
000ADC 1100       F    2219     RESET_2:        call    RESET_4
000ADE F5F0            2220                             mov             B, A
000AE0 E0              2221                             movx    A, @DPTR
000AE1 B5F026          2222                             cjne    A, B, QUESTION
000AE4 A3              2223     RESET_3:        inc             DPTR
000AE5 057F            2224                             inc             0x7F
000AE7 E57F            2225                             mov             A, 0x7F
000AE9 B411DE          2226                             cjne    A, #17d,RESET_1
                       2227     
000AEC 75B1FF          2228                             mov             LFO0CN, #0FFh
000AEF 7597A5          2229                             mov             WDTCN, #0A5h
000AF2 759701          2230                             mov             WDTCN, #01h
000AF5 80FE            2231                             jmp             $
000AF7 83              2232     RESET_4:        movc    A,@A+PC
000AF8 22              2233                             ret
000AF9 44              2234                             DB              44h
000AFA 56              2235                             DB              56h
000AFB 3A              2236                             DB              3Ah
000AFC 20              2237                             DB              20h
000AFD 20              2238                             DB              20h
000AFE 52              2239                             DB              52h
000AFF 53              2240                             DB              53h
000B00 54              2241                             DB              54h
000B01 00              2242                             DB              00h
000B02 00              2243                             DB              00h
000B03 00              2244                             DB              00h
000B04 00              2245                             DB              00h
000B05 00              2246                             DB              00h
000B06 00              2247                             DB              00h
000B07 00              2248                             DB              00h
000B08 00              2249                             DB              00h
000B09 22              2250                             ret
                       2251     
                       2252     
000B0A 757F01          2253     QUESTION:       mov             0x7F, #1d
000B0D 900000          2254                             mov             DPTR, #0000h
000B10 E57F            2255     QUESTION_1:     mov             A, 0x7F
AX51 MACRO ASSEMBLER  MESSVERST_NEW                                                         01/07/24 00:14:01 PAGE    37

000B12 B4040D          2256                             cjne    A, #4d, QUESTION_2
000B15 E54B            2257                             mov             A, 0x4B
000B17 120000     F    2258                             call    TAB_HEX
000B1A F5F0            2259                             mov             B, A
000B1C E0              2260                             movx    A, @DPTR
000B1D B5F028          2261                             cjne    A, B, SWV
000B20 8008            2262                             jmp             QUESTION_3
000B22 1100       F    2263     QUESTION_2:     call    QUESTION_4
000B24 F5F0            2264                             mov             B, A
000B26 E0              2265                             movx    A, @DPTR
000B27 B5F01E          2266                             cjne    A, B, SWV
000B2A A3              2267     QUESTION_3:     inc             DPTR
000B2B 057F            2268                             inc             0x7F
000B2D E57F            2269                             mov             A, 0x7F
000B2F B411DE          2270                             cjne    A, #17d,QUESTION_1
000B32 020000     F    2271                             ljmp    UART_WO_0
000B35 83              2272     QUESTION_4:     movc    A,@A+PC
000B36 22              2273                             ret
000B37 44              2274                             DB              44h
000B38 56              2275                             DB              56h
000B39 3A              2276                             DB              3Ah
000B3A 20              2277                             DB              20h
000B3B 20              2278                             DB              20h
000B3C 3F              2279                             DB              3Fh
000B3D 00              2280                             DB              00h
000B3E 00              2281                             DB              00h
000B3F 00              2282                             DB              00h
000B40 00              2283                             DB              00h
000B41 00              2284                             DB              00h
000B42 00              2285                             DB              00h
000B43 00              2286                             DB              00h
000B44 00              2287                             DB              00h
000B45 00              2288                             DB              00h
000B46 00              2289                             DB              00h
000B47 22              2290                             ret
                       2291     
                       2292     
000B48 757F01          2293     SWV:            mov             0x7F, #1d
000B4B 900000          2294                             mov             DPTR, #0000h
000B4E E57F            2295     SWV_1:          mov             A, 0x7F
000B50 B4040D          2296                             cjne    A, #4d, SWV_2
000B53 E54B            2297                             mov             A, 0x4B
000B55 120000     F    2298                             call    TAB_HEX
000B58 F5F0            2299                             mov             B, A
000B5A E0              2300                             movx    A, @DPTR
000B5B B5F028          2301                             cjne    A, B, SER
000B5E 8008            2302                             jmp             SWV_3
000B60 1100       F    2303     SWV_2:          call    SWV_4
000B62 F5F0            2304                             mov             B, A
000B64 E0              2305                             movx    A, @DPTR
000B65 B5F01E          2306                             cjne    A, B, SER
000B68 A3              2307     SWV_3:          inc             DPTR
000B69 057F            2308                             inc             0x7F
000B6B E57F            2309                             mov             A, 0x7F
000B6D B411DE          2310                             cjne    A, #17d,SWV_1
000B70 020000     F    2311                             ljmp    UART_SWV
000B73 83              2312     SWV_4:          movc    A,@A+PC
000B74 22              2313                             ret
000B75 44              2314                             DB              44h
000B76 56              2315                             DB              56h
000B77 3A              2316                             DB              3Ah
000B78 20              2317                             DB              20h
000B79 20              2318                             DB              20h
AX51 MACRO ASSEMBLER  MESSVERST_NEW                                                         01/07/24 00:14:01 PAGE    38

000B7A 53              2319                             DB              53h
000B7B 57              2320                             DB              57h
000B7C 56              2321                             DB              56h
000B7D 3F              2322                             DB              3Fh
000B7E 00              2323                             DB              00h
000B7F 00              2324                             DB              00h
000B80 00              2325                             DB              00h
000B81 00              2326                             DB              00h
000B82 00              2327                             DB              00h
000B83 00              2328                             DB              00h
000B84 00              2329                             DB              00h
000B85 22              2330                             ret
                       2331     
                       2332     
000B86 757F01          2333     SER:            mov             0x7F, #1d
000B89 900000          2334                             mov             DPTR, #0000h
000B8C E57F            2335     SER_1:          mov             A, 0x7F
000B8E B4040D          2336                             cjne    A, #4d, SER_2
000B91 E54B            2337                             mov             A, 0x4B
000B93 120000     F    2338                             call    TAB_HEX
000B96 F5F0            2339                             mov             B, A
000B98 E0              2340                             movx    A, @DPTR
000B99 B5F028          2341                             cjne    A, B, IDN
000B9C 8008            2342                             jmp             SER_3
000B9E 1100       F    2343     SER_2:          call    SER_4
000BA0 F5F0            2344                             mov             B, A
000BA2 E0              2345                             movx    A, @DPTR
000BA3 B5F01E          2346                             cjne    A, B, IDN
000BA6 A3              2347     SER_3:          inc             DPTR
000BA7 057F            2348                             inc             0x7F
000BA9 E57F            2349                             mov             A, 0x7F
000BAB B411DE          2350                             cjne    A, #17d,SER_1
000BAE 020000     F    2351                             ljmp    UART_SER
000BB1 83              2352     SER_4:          movc    A,@A+PC
000BB2 22              2353                             ret
000BB3 44              2354                             DB              44h
000BB4 56              2355                             DB              56h
000BB5 3A              2356                             DB              3Ah
000BB6 20              2357                             DB              20h
000BB7 20              2358                             DB              20h
000BB8 53              2359                             DB              53h
000BB9 45              2360                             DB              45h
000BBA 52              2361                             DB              52h
000BBB 3F              2362                             DB              3Fh
000BBC 00              2363                             DB              00h
000BBD 00              2364                             DB              00h
000BBE 00              2365                             DB              00h
000BBF 00              2366                             DB              00h
000BC0 00              2367                             DB              00h
000BC1 00              2368                             DB              00h
000BC2 00              2369                             DB              00h
000BC3 22              2370                             ret
                       2371     
                       2372     
000BC4 757F01          2373     IDN:            mov             0x7F, #1d
000BC7 900000          2374                             mov             DPTR, #0000h
000BCA E57F            2375     IDN_1:          mov             A, 0x7F
000BCC B4040D          2376                             cjne    A, #4d, IDN_2
000BCF E54B            2377                             mov             A, 0x4B
000BD1 120000     F    2378                             call    TAB_HEX
000BD4 F5F0            2379                             mov             B, A
000BD6 E0              2380                             movx    A, @DPTR
000BD7 B5F028          2381                             cjne    A, B, SET_SER
AX51 MACRO ASSEMBLER  MESSVERST_NEW                                                         01/07/24 00:14:01 PAGE    39

000BDA 8008            2382                             jmp             IDN_3
000BDC 1100       F    2383     IDN_2:          call    IDN_4
000BDE F5F0            2384                             mov             B, A
000BE0 E0              2385                             movx    A, @DPTR
000BE1 B5F01E          2386                             cjne    A, B, SET_SER
000BE4 A3              2387     IDN_3:          inc             DPTR
000BE5 057F            2388                             inc             0x7F
000BE7 E57F            2389                             mov             A, 0x7F
000BE9 B411DE          2390                             cjne    A, #17d,IDN_1
000BEC 020000     F    2391                             ljmp    UART_ID
000BEF 83              2392     IDN_4:          movc    A,@A+PC
000BF0 22              2393                             ret
000BF1 44              2394                             DB              44h
000BF2 56              2395                             DB              56h
000BF3 3A              2396                             DB              3Ah
000BF4 20              2397                             DB              20h
000BF5 20              2398                             DB              20h
000BF6 49              2399                             DB              49h
000BF7 44              2400                             DB              44h
000BF8 4E              2401                             DB              4Eh
000BF9 3F              2402                             DB              3Fh
000BFA 00              2403                             DB              00h
000BFB 00              2404                             DB              00h
000BFC 00              2405                             DB              00h
000BFD 00              2406                             DB              00h
000BFE 00              2407                             DB              00h
000BFF 00              2408                             DB              00h
000C00 00              2409                             DB              00h
000C01 22              2410                             ret
                       2411     
                       2412     
000C02 757F01          2413     SET_SER:        mov             0x7F, #1d
000C05 900000          2414                             mov             DPTR, #0000h
000C08 E57F            2415     SET_SER_1:      mov             A, 0x7F
000C0A B4040D          2416                             cjne    A, #4d, SET_SER_2
000C0D E54B            2417                             mov             A, 0x4B
000C0F 120000     F    2418                             call    TAB_HEX
000C12 F5F0            2419                             mov             B, A
000C14 E0              2420                             movx    A, @DPTR
000C15 B5F022          2421                             cjne    A, B, SET_SER_5
000C18 8008            2422                             jmp             SET_SER_3
000C1A 1100       F    2423     SET_SER_2:      call    SET_SER_4
000C1C F5F0            2424                             mov             B, A
000C1E E0              2425                             movx    A, @DPTR
000C1F B5F018          2426                             cjne    A, B, SET_SER_5
000C22 A3              2427     SET_SER_3:      inc             DPTR
000C23 057F            2428                             inc             0x7F
000C25 E57F            2429                             mov             A, 0x7F
000C27 B40BDE          2430                             cjne    A, #11d,SET_SER_1
000C2A 020000     F    2431                             ljmp    SET_SER_6
000C2D 83              2432     SET_SER_4:      movc    A,@A+PC
000C2E 22              2433                             ret
000C2F 44              2434                             DB              44h
000C30 56              2435                             DB              56h
000C31 3A              2436                             DB              3Ah
000C32 20              2437                             DB              20h
000C33 5F              2438                             DB              5Fh
000C34 40              2439                             DB              40h
000C35 3D              2440                             DB              3Dh
000C36 53              2441                             DB              53h
000C37 45              2442                             DB              45h
000C38 52              2443                             DB              52h
000C39 22              2444                             ret
AX51 MACRO ASSEMBLER  MESSVERST_NEW                                                         01/07/24 00:14:01 PAGE    40

                       2445     
000C3A 020000     F    2446     SET_SER_5:      ljmp    main
000C3D 90000F          2447     SET_SER_6:      mov             DPTR, #0Fh
000C40 E0              2448                             movx    A, @DPTR
000C41 B400F6          2449                             cjne    A, #00h, SET_SER_5
                       2450     
000C44 C2AF            2451                             clr             IE_EA
                       2452     
000C46 75B7A5          2453                             mov             FLKEY, #0A5h
000C49 75B7F1          2454                             mov             FLKEY, #0F1h
000C4C 758F03          2455                             mov             PSCTL, #00000011b
000C4F 90E000          2456                             MOV     DPTR,#0E000h
000C52 E4              2457                             clr             A
000C53 F0              2458                             movx    @DPTR, A
000C54 758F00          2459                             mov             PSCTL, #00000000b
                       2460     
                       2461     
000C57 75B7A5          2462                             mov             FLKEY, #0A5h
000C5A 75B7F1          2463                             mov             FLKEY, #0F1h
000C5D 758F01          2464                             mov             PSCTL, #00000001b
                       2465     
000C60 90000A          2466                             mov             DPTR, #0Ah
000C63 E0              2467                             movx    A, @DPTR
                       2468     
000C64 90E000          2469                             MOV     DPTR,#0E000h
000C67 F0              2470                             movx    @DPTR, A
000C68 758F00          2471                             mov             PSCTL, #00000000b
000C6B E4              2472                             clr             A
                       2473     
000C6C 75B7A5          2474                             mov             FLKEY, #0A5h
000C6F 75B7F1          2475                             mov             FLKEY, #0F1h
000C72 758F01          2476                             mov             PSCTL, #00000001b
                       2477     
000C75 90000B          2478                             mov             DPTR, #0Bh
000C78 E0              2479                             movx    A, @DPTR
                       2480     
000C79 90E001          2481                             MOV     DPTR,#0E001h
000C7C F0              2482                             movx    @DPTR, A
000C7D 758F00          2483                             mov             PSCTL, #00000000b
000C80 E4              2484                             clr             A
                       2485     
000C81 75B7A5          2486                             mov             FLKEY, #0A5h
000C84 75B7F1          2487                             mov             FLKEY, #0F1h
000C87 758F01          2488                             mov             PSCTL, #00000001b
                       2489     
000C8A 90000C          2490                             mov             DPTR, #0Ch
000C8D E0              2491                             movx    A, @DPTR
                       2492     
000C8E 90E002          2493                             MOV     DPTR,#0E002h
000C91 F0              2494                             movx    @DPTR, A
000C92 758F00          2495                             mov             PSCTL, #00000000b
000C95 E4              2496                             clr             A
                       2497     
000C96 75B7A5          2498                             mov             FLKEY, #0A5h
000C99 75B7F1          2499                             mov             FLKEY, #0F1h
000C9C 758F01          2500                             mov             PSCTL, #00000001b
                       2501     
000C9F 90000D          2502                             mov             DPTR, #0Dh
000CA2 E0              2503                             movx    A, @DPTR
                       2504     
000CA3 90E003          2505                             MOV     DPTR,#0E003h
000CA6 F0              2506                             movx    @DPTR, A
000CA7 758F00          2507                             mov             PSCTL, #00000000b
AX51 MACRO ASSEMBLER  MESSVERST_NEW                                                         01/07/24 00:14:01 PAGE    41

000CAA E4              2508                             clr             A
                       2509     
000CAB 75B7A5          2510                             mov             FLKEY, #0A5h
000CAE 75B7F1          2511                             mov             FLKEY, #0F1h
000CB1 758F01          2512                             mov             PSCTL, #00000001b
                       2513     
000CB4 90000E          2514                             mov             DPTR, #0Eh
000CB7 E0              2515                             movx    A, @DPTR
                       2516     
000CB8 90E004          2517                             MOV     DPTR,#0E004h
000CBB F0              2518                             movx    @DPTR, A
000CBC 758F00          2519                             mov             PSCTL, #00000000b
000CBF E4              2520                             clr             A
000CC0 D2AF            2521                             setb    IE_EA
000CC2 020000     F    2522     UART_10:        ljmp    main0
                       2523     
                       2524     
                       2525     
000CC5 900010          2526     UART_WO_0:      mov             DPTR, #0010h
000CC8 7444            2527                             mov             A, #44h
000CCA F0              2528                             movx    @DPTR, A
000CCB A3              2529                             inc             DPTR
000CCC 7456            2530                             mov             A, #56h
000CCE F0              2531                             movx    @DPTR, A
000CCF A3              2532                             inc             DPTR
000CD0 743A            2533                             mov             A, #3Ah
000CD2 F0              2534                             movx    @DPTR, A
000CD3 A3              2535                             inc             DPTR
000CD4 E54B            2536                             mov             A, 0x4B
000CD6 120000     F    2537                             call    TAB_HEX
000CD9 F0              2538                             movx    @DPTR, A
000CDA A3              2539                             inc             DPTR
000CDB 743D            2540                             mov             A, #3Dh
000CDD F0              2541                             movx    @DPTR, A
000CDE A3              2542                             inc             DPTR
000CDF 7400            2543                             mov             A, #00h
000CE1 F0              2544                             movx    @DPTR, A
000CE2 A3              2545                             inc             DPTR
000CE3 7400            2546                             mov             A, #00h
000CE5 F0              2547                             movx    @DPTR, A
000CE6 A3              2548                             inc             DPTR
000CE7 7400            2549                             mov             A, #00h
000CE9 F0              2550                             movx    @DPTR, A
000CEA A3              2551                             inc             DPTR
000CEB 7400            2552                             mov             A, #00h
000CED F0              2553                             movx    @DPTR, A
000CEE A3              2554                             inc             DPTR
000CEF 7400            2555                             mov             A, #00h
000CF1 F0              2556                             movx    @DPTR, A
000CF2 A3              2557                             inc             DPTR
000CF3 7400            2558                             mov             A, #00h
000CF5 F0              2559                             movx    @DPTR, A
                       2560     
                       2561     
000CF6 EC              2562                             mov             A, R4
000CF7 B40014          2563                             cjne    A, #0d, UART_WO_1
                       2564     
000CFA 900015          2565                             mov             DPTR, #0015h
000CFD 7435            2566                             mov             A, #35h
000CFF F0              2567                             movx    @DPTR, A
000D00 A3              2568                             inc             DPTR
000D01 7430            2569                             mov             A, #30h
000D03 F0              2570                             movx    @DPTR, A
AX51 MACRO ASSEMBLER  MESSVERST_NEW                                                         01/07/24 00:14:01 PAGE    42

000D04 A3              2571                             inc             DPTR
000D05 7430            2572                             mov             A, #30h
000D07 F0              2573                             movx    @DPTR, A
000D08 A3              2574                             inc             DPTR
000D09 7400            2575                             mov             A, #00h
000D0B F0              2576                             movx    @DPTR, A
000D0C 0100       F    2577                             jmp             UART_SEND
                       2578     
000D0E B40110          2579     UART_WO_1:      cjne    A, #1d, UART_WO_2
000D11 900015          2580                             mov             DPTR, #0015h
000D14 7431            2581                             mov             A, #31h
000D16 F0              2582                             movx    @DPTR, A
000D17 A3              2583                             inc             DPTR
000D18 744B            2584                             mov             A, #4Bh
000D1A F0              2585                             movx    @DPTR, A
000D1B A3              2586                             inc             DPTR
000D1C 7400            2587                             mov             A, #00h
000D1E F0              2588                             movx    @DPTR, A
000D1F 0100       F    2589                             jmp             UART_SEND
                       2590     
000D21 B40210          2591     UART_WO_2:      cjne    A, #2d, UART_WO_3
000D24 900015          2592                             mov             DPTR, #0015h
000D27 7432            2593                             mov             A, #32h
000D29 F0              2594                             movx    @DPTR, A
000D2A A3              2595                             inc             DPTR
000D2B 744B            2596                             mov             A, #4Bh
000D2D F0              2597                             movx    @DPTR, A
000D2E A3              2598                             inc             DPTR
000D2F 7400            2599                             mov             A, #00h
000D31 F0              2600                             movx    @DPTR, A
000D32 0100       F    2601                             jmp             UART_SEND
                       2602     
000D34 B40310          2603     UART_WO_3:      cjne    A, #3d, UART_WO_4
000D37 900015          2604                             mov             DPTR, #0015h
000D3A 7435            2605                             mov             A, #35h
000D3C F0              2606                             movx    @DPTR, A
000D3D A3              2607                             inc             DPTR
000D3E 744B            2608                             mov             A, #4Bh
000D40 F0              2609                             movx    @DPTR, A
000D41 A3              2610                             inc             DPTR
000D42 7400            2611                             mov             A, #00h
000D44 F0              2612                             movx    @DPTR, A
000D45 0100       F    2613                             jmp             UART_SEND
                       2614     
000D47 B40414          2615     UART_WO_4:      cjne    A, #4d, UART_WO_5
000D4A 900015          2616                             mov             DPTR, #0015h
000D4D 7431            2617                             mov             A, #31h
000D4F F0              2618                             movx    @DPTR, A
000D50 A3              2619                             inc             DPTR
000D51 7430            2620                             mov             A, #30h
000D53 F0              2621                             movx    @DPTR, A
000D54 A3              2622                             inc             DPTR
000D55 744B            2623                             mov             A, #4Bh
000D57 F0              2624                             movx    @DPTR, A
000D58 A3              2625                             inc             DPTR
000D59 7400            2626                             mov             A, #00h
000D5B F0              2627                             movx    @DPTR, A
000D5C 0100       F    2628                             jmp             UART_SEND
                       2629     
000D5E B40514          2630     UART_WO_5:      cjne    A, #5d, UART_WO_6
000D61 900015          2631                             mov             DPTR, #0015h
000D64 7432            2632                             mov             A, #32h
000D66 F0              2633                             movx    @DPTR, A
AX51 MACRO ASSEMBLER  MESSVERST_NEW                                                         01/07/24 00:14:01 PAGE    43

000D67 A3              2634                             inc             DPTR
000D68 7430            2635                             mov             A, #30h
000D6A F0              2636                             movx    @DPTR, A
000D6B A3              2637                             inc             DPTR
000D6C 744B            2638                             mov             A, #4Bh
000D6E F0              2639                             movx    @DPTR, A
000D6F A3              2640                             inc             DPTR
000D70 7400            2641                             mov             A, #00h
000D72 F0              2642                             movx    @DPTR, A
000D73 0100       F    2643                             jmp             UART_SEND
                       2644     
000D75 900015          2645     UART_WO_6:      mov             DPTR, #0015h
000D78 7434            2646                             mov             A, #34h
000D7A F0              2647                             movx    @DPTR, A
000D7B A3              2648                             inc             DPTR
000D7C 7430            2649                             mov             A, #30h
000D7E F0              2650                             movx    @DPTR, A
000D7F A3              2651                             inc             DPTR
000D80 744B            2652                             mov             A, #4Bh
000D82 F0              2653                             movx    @DPTR, A
000D83 A3              2654                             inc             DPTR
000D84 7400            2655                             mov             A, #00h
000D86 F0              2656                             movx    @DPTR, A
000D87 0100       F    2657                             jmp             UART_SEND
                       2658     
                       2659     
000D89 75F001          2660     UART_AZ_OK:     mov             B, #1d
000D8C 900010          2661                             mov             DPTR, #0010h
000D8F E5F0            2662     UART_AZ_OK1:mov         A, B
000D91 B40407          2663                             cjne    A, #4d, UART_AZ_OK2
000D94 E54B            2664                             mov             A, 0x4B
000D96 120000     F    2665                             call    TAB_HEX
000D99 8008            2666                             jmp             UART_AZ_OK3
000D9B 1100       F    2667     UART_AZ_OK2:call        TAB_AZ_OK
000D9D B40003          2668                             cjne    A, #00h, UART_AZ_OK3
000DA0 F0              2669                             movx    @DPTR, A
000DA1 0100       F    2670                             jmp             UART_SEND
000DA3 F0              2671     UART_AZ_OK3:movx        @DPTR, A
000DA4 A3              2672                             inc             DPTR
000DA5 05F0            2673                             inc             B
000DA7 80E6            2674                             jmp             UART_AZ_OK1
                       2675     
                       2676     
000DA9 83              2677     TAB_AZ_OK:      movc    A,@A+PC
000DAA 22              2678                             ret
                       2679     
000DAB 44              2680                             DB              44h
000DAC 56              2681                             DB              56h
000DAD 3A              2682                             DB              3Ah
000DAE 20              2683                             DB              20h
000DAF 3D              2684                             DB              3Dh
000DB0 41              2685                             DB              41h
000DB1 55              2686                             DB              55h
000DB2 54              2687                             DB              54h
000DB3 4F              2688                             DB              4Fh
000DB4 5A              2689                             DB              5Ah
000DB5 45              2690                             DB              45h
000DB6 52              2691                             DB              52h
000DB7 4F              2692                             DB              4Fh
000DB8 3D              2693                             DB              3Dh
000DB9 4F              2694                             DB              4Fh
000DBA 4B              2695                             DB              4Bh
000DBB 00              2696                             DB              00h
AX51 MACRO ASSEMBLER  MESSVERST_NEW                                                         01/07/24 00:14:01 PAGE    44

000DBC 22              2697                             ret
                       2698     
                       2699     
                       2700     
                       2701     
                       2702     
                       2703     
                       2704     
                       2705     
                       2706     
000DBD 75F001          2707     UART_VOLT_1:mov         B, #1d
000DC0 900010          2708                             mov             DPTR, #0010h
000DC3 E5F0            2709     UART_VOLT_2:mov         A, B
000DC5 B40407          2710                             cjne    A, #4d, UART_VOLT_3
000DC8 E54B            2711                             mov             A, 0x4B
000DCA 120000     F    2712                             call    TAB_HEX
000DCD 8063            2713                             jmp             UART_VOLT_18
000DCF B40626          2714     UART_VOLT_3:cjne        A, #6d, UART_VOLT_12
000DD2 300004          2715                             jnb             OUTPUT_POSITIV, UART_VOLT_4
000DD5 742B            2716                             mov             A, #2Bh
000DD7 8059            2717                             jmp             UART_VOLT_18
000DD9 C3              2718     UART_VOLT_4:clr         C
000DDA E50A            2719                             mov             A, 0x0A
000DDC 7012            2720                             jnz             UART_VOLT_10
000DDE E50B            2721                             mov             A, 0x0B
000DE0 700E            2722                             jnz             UART_VOLT_10
000DE2 E50C            2723                             mov             A, 0x0C
000DE4 700A            2724                             jnz             UART_VOLT_10
000DE6 E50D            2725                             mov             A, 0x0D
000DE8 7006            2726                             jnz             UART_VOLT_10
000DEA E50E            2727                             mov             A, 0x0E
000DEC 7002            2728                             jnz             UART_VOLT_10
000DEE 8004            2729                             jmp             UART_VOLT_11
000DF0 742D            2730     UART_VOLT_10:mov                A, #2Dh
000DF2 803E            2731                             jmp             UART_VOLT_18
000DF4 7420            2732     UART_VOLT_11:mov                A, #20h
000DF6 803A            2733                             jmp             UART_VOLT_18
000DF8 B40707          2734     UART_VOLT_12:cjne       A, #7d, UART_VOLT_13
000DFB E50A            2735                             mov             A, 0x0A
000DFD 120000     F    2736                             call    TAB_HEX
000E00 8030            2737                             jmp             UART_VOLT_18
000E02 B40807          2738     UART_VOLT_13:cjne       A, #8d, UART_VOLT_14
000E05 E50B            2739                             mov             A, 0x0B
000E07 120000     F    2740                             call    TAB_HEX
000E0A 8026            2741                             jmp             UART_VOLT_18
000E0C B40A07          2742     UART_VOLT_14:cjne       A, #10d, UART_VOLT_15
000E0F E50C            2743                             mov             A, 0x0C
000E11 120000     F    2744                             call    TAB_HEX
000E14 801C            2745                             jmp             UART_VOLT_18
000E16 B40B07          2746     UART_VOLT_15:cjne       A, #11d, UART_VOLT_16
000E19 E50D            2747                             mov             A, 0x0D
000E1B 120000     F    2748                             call    TAB_HEX
000E1E 8012            2749                             jmp             UART_VOLT_18
000E20 B40C07          2750     UART_VOLT_16:cjne       A, #12d, UART_VOLT_17
000E23 E50E            2751                             mov             A, 0x0E
000E25 120000     F    2752                             call    TAB_HEX
000E28 8008            2753                             jmp             UART_VOLT_18
000E2A 1100       F    2754     UART_VOLT_17:call       UART_VOLT_19
000E2C B40003          2755                             cjne    A, #00h, UART_VOLT_18
000E2F F0              2756                             movx    @DPTR, A
000E30 0100       F    2757                             jmp             UART_SEND
000E32 F0              2758     UART_VOLT_18:movx       @DPTR, A
000E33 A3              2759                             inc             DPTR
AX51 MACRO ASSEMBLER  MESSVERST_NEW                                                         01/07/24 00:14:01 PAGE    45

000E34 05F0            2760                             inc             B
000E36 808B            2761                             jmp             UART_VOLT_2
000E38 83              2762     UART_VOLT_19:movc       A,@A+PC
000E39 22              2763                             ret
000E3A 44              2764                             DB              44h
000E3B 56              2765                             DB              56h
000E3C 3A              2766                             DB              3Ah
000E3D 20              2767                             DB              20h
000E3E 3D              2768                             DB              3Dh
000E3F 2B              2769                             DB              2Bh
000E40 30              2770                             DB              30h
000E41 30              2771                             DB              30h
000E42 2E              2772                             DB              2Eh
000E43 30              2773                             DB              30h
000E44 30              2774                             DB              30h
000E45 30              2775                             DB              30h
000E46 56              2776                             DB              56h
000E47 00              2777                             DB              00h
000E48 00              2778                             DB              00h
000E49 00              2779                             DB              00h
000E4A 00              2780                             DB              00h
000E4B 22              2781                             ret
                       2782     
                       2783     
000E4C 75F001          2784     UART_ID:        mov             B, #1d
000E4F 900010          2785                             mov             DPTR, #0010h
000E52 E5F0            2786     UART_ID1:       mov             A, B
000E54 B4470A          2787                             cjne    A, #71d, UART_ID2
000E57 E4              2788                             clr             A
000E58 90E000          2789                             MOV     DPTR,#0E000h
000E5B 93              2790                             MOVC    A, @A+DPTR
000E5C 900056          2791                             mov             DPTR, #0056h
000E5F 803C            2792                             jmp             UART_ID7
000E61 B4480A          2793     UART_ID2:       cjne    A, #72d, UART_ID3
000E64 E4              2794                             clr             A
000E65 90E001          2795                             MOV     DPTR,#0E001h
000E68 93              2796                             MOVC    A, @A+DPTR
000E69 900057          2797                             mov             DPTR, #0057h
000E6C 802F            2798                             jmp             UART_ID7
000E6E B4490A          2799     UART_ID3:       cjne    A, #73d, UART_ID4
000E71 E4              2800                             clr             A
000E72 90E002          2801                             MOV     DPTR,#0E002h
000E75 93              2802                             MOVC    A, @A+DPTR
000E76 900058          2803                             mov             DPTR, #0058h
000E79 8022            2804                             jmp             UART_ID7
000E7B B44A0A          2805     UART_ID4:       cjne    A, #74d, UART_ID5
000E7E E4              2806                             clr             A
000E7F 90E003          2807                             MOV     DPTR,#0E003h
000E82 93              2808                             MOVC    A, @A+DPTR
000E83 900059          2809                             mov             DPTR, #0059h
000E86 8015            2810                             jmp             UART_ID7
000E88 B44B0A          2811     UART_ID5:       cjne    A, #75d, UART_ID6
000E8B E4              2812                             clr             A
000E8C 90E004          2813                             MOV     DPTR,#0E004h
000E8F 93              2814                             MOVC    A, @A+DPTR
000E90 90005A          2815                             mov             DPTR, #005Ah
000E93 8008            2816                             jmp             UART_ID7
000E95 1100       F    2817     UART_ID6:       call    TAB_ID
000E97 B40003          2818                             cjne    A, #00h, UART_ID7
000E9A F0              2819                             movx    @DPTR, A
000E9B 0100       F    2820                             jmp             UART_SEND
000E9D F0              2821     UART_ID7:       movx    @DPTR, A
000E9E A3              2822                             inc             DPTR
AX51 MACRO ASSEMBLER  MESSVERST_NEW                                                         01/07/24 00:14:01 PAGE    46

000E9F 05F0            2823                             inc             B
000EA1 80AF            2824                             jmp             UART_ID1
000EA3 83              2825     TAB_ID:         movc    A,@A+PC
000EA4 22              2826                             ret
000EA5 56              2827                             DB              56h
000EA6 46              2828                             DB              46h
000EA7 54              2829                             DB              54h
000EA8 20              2830                             DB              20h
000EA9 56              2831                             DB              56h
000EAA 65              2832                             DB              65h
000EAB 63              2833                             DB              63h
000EAC 74              2834                             DB              74h
000EAD 6F              2835                             DB              6Fh
000EAE 72              2836                             DB              72h
000EAF 66              2837                             DB              66h
000EB0 6F              2838                             DB              6Fh
000EB1 72              2839                             DB              72h
000EB2 63              2840                             DB              63h
000EB3 65              2841                             DB              65h
000EB4 2D              2842                             DB              2Dh
000EB5 54              2843                             DB              54h
000EB6 65              2844                             DB              65h
000EB7 63              2845                             DB              63h
000EB8 68              2846                             DB              68h
000EB9 6E              2847                             DB              6Eh
000EBA 6F              2848                             DB              6Fh
000EBB 6C              2849                             DB              6Ch
000EBC 6F              2850                             DB              6Fh
000EBD 67              2851                             DB              67h
000EBE 69              2852                             DB              69h
000EBF 65              2853                             DB              65h
000EC0 73              2854                             DB              73h
000EC1 20              2855                             DB              20h
000EC2 44              2856                             DB              44h
000EC3 56              2857                             DB              56h
000EC4 34              2858                             DB              34h
000EC5 30              2859                             DB              30h
000EC6 4B              2860                             DB              4Bh
000EC7 20              2861                             DB              20h
000EC8 53              2862                             DB              53h
000EC9 6F              2863                             DB              6Fh
000ECA 66              2864                             DB              66h
000ECB 74              2865                             DB              74h
000ECC 77              2866                             DB              77h
000ECD 61              2867                             DB              61h
000ECE 72              2868                             DB              72h
000ECF 65              2869                             DB              65h
000ED0 76              2870                             DB              76h
000ED1 65              2871                             DB              65h
000ED2 72              2872                             DB              72h
000ED3 73              2873                             DB              73h
000ED4 69              2874                             DB              69h
000ED5 6F              2875                             DB              6Fh
000ED6 6E              2876                             DB              6Eh
000ED7 3A              2877                             DB              3Ah
000ED8 56              2878                             DB              56h
000ED9 31              2879                             DB              31h
000EDA 2E              2880                             DB              2Eh
000EDB 30              2881                             DB              30h
000EDC 37              2882                             DB              37h
000EDD 20              2883                             DB              20h
000EDE 53              2884                             DB              53h
000EDF 65              2885                             DB              65h
AX51 MACRO ASSEMBLER  MESSVERST_NEW                                                         01/07/24 00:14:01 PAGE    47

000EE0 72              2886                             DB              72h
000EE1 69              2887                             DB              69h
000EE2 61              2888                             DB              61h
000EE3 6C              2889                             DB              6Ch
000EE4 6E              2890                             DB              6Eh
000EE5 75              2891                             DB              75h
000EE6 6D              2892                             DB              6Dh
000EE7 62              2893                             DB              62h
000EE8 65              2894                             DB              65h
000EE9 72              2895                             DB              72h
000EEA 3A              2896                             DB              3Ah
000EEB 78              2897                             DB              78h
000EEC 78              2898                             DB              78h
000EED 78              2899                             DB              78h
000EEE 78              2900                             DB              78h
000EEF 78              2901                             DB              78h
000EF0 00              2902                             DB              00h
000EF1 22              2903                             ret
                       2904     
                       2905     
000EF2 75F001          2906     UART_SWV:       mov             B, #1d
000EF5 900010          2907                             mov             DPTR, #0010h
000EF8 E5F0            2908     UART_SWV1:      mov             A, B
000EFA 1100       F    2909     UART_SWV2:      call    UART_SWV4
000EFC B40003          2910                             cjne    A, #00h, UART_SWV3
000EFF F0              2911                             movx    @DPTR, A
000F00 0100       F    2912                             jmp             UART_SEND
000F02 F0              2913     UART_SWV3:      movx    @DPTR, A
000F03 A3              2914                             inc             DPTR
000F04 05F0            2915                             inc             B
000F06 80F0            2916                             jmp             UART_SWV1
                       2917     
                       2918     
000F08 83              2919     UART_SWV4:      movc    A,@A+PC
000F09 22              2920                             ret
000F0A 53              2921                             DB              53h
000F0B 6F              2922                             DB              6Fh
000F0C 66              2923                             DB              66h
000F0D 74              2924                             DB              74h
000F0E 77              2925                             DB              77h
000F0F 61              2926                             DB              61h
000F10 72              2927                             DB              72h
000F11 65              2928                             DB              65h
000F12 76              2929                             DB              76h
000F13 65              2930                             DB              65h
000F14 72              2931                             DB              72h
000F15 73              2932                             DB              73h
000F16 69              2933                             DB              69h
000F17 6F              2934                             DB              6Fh
000F18 6E              2935                             DB              6Eh
000F19 3A              2936                             DB              3Ah
000F1A 56              2937                             DB              56h
000F1B 31              2938                             DB              31h
000F1C 2E              2939                             DB              2Eh
000F1D 30              2940                             DB              30h
000F1E 37              2941                             DB              37h
000F1F 00              2942                             DB              00h
000F20 22              2943                             ret
                       2944     
                       2945     
000F21 75F001          2946     UART_SER:       mov             B, #1d
000F24 900010          2947                             mov             DPTR, #0010h
000F27 E5F0            2948     UART_SER1:      mov             A, B
AX51 MACRO ASSEMBLER  MESSVERST_NEW                                                         01/07/24 00:14:01 PAGE    48

000F29 B40E0A          2949                             cjne    A, #14d, UART_SER2
000F2C E4              2950                             clr             A
000F2D 90E000          2951                             MOV     DPTR,#0E000h
000F30 93              2952                             MOVC    A, @A+DPTR
000F31 90001D          2953                             mov             DPTR, #001Dh
000F34 803C            2954                             jmp             UART_SER7
000F36 B40F0A          2955     UART_SER2:      cjne    A, #15d, UART_SER3
000F39 E4              2956                             clr             A
000F3A 90E001          2957                             MOV     DPTR,#0E001h
000F3D 93              2958                             MOVC    A, @A+DPTR
000F3E 90001E          2959                             mov             DPTR, #001Eh
000F41 802F            2960                             jmp             UART_SER7
000F43 B4100A          2961     UART_SER3:      cjne    A, #16d, UART_SER4
000F46 E4              2962                             clr             A
000F47 90E002          2963                             MOV     DPTR,#0E002h
000F4A 93              2964                             MOVC    A, @A+DPTR
000F4B 90001F          2965                             mov             DPTR, #001Fh
000F4E 8022            2966                             jmp             UART_SER7
000F50 B4110A          2967     UART_SER4:      cjne    A, #17d, UART_SER5
000F53 E4              2968                             clr             A
000F54 90E003          2969                             MOV     DPTR,#0E003h
000F57 93              2970                             MOVC    A, @A+DPTR
000F58 900020          2971                             mov             DPTR, #0020h
000F5B 8015            2972                             jmp             UART_SER7
000F5D B4120A          2973     UART_SER5:      cjne    A, #18d, UART_SER6
000F60 E4              2974                             clr             A
000F61 90E004          2975                             MOV     DPTR,#0E004h
000F64 93              2976                             MOVC    A, @A+DPTR
000F65 900021          2977                             mov             DPTR, #0021h
000F68 8008            2978                             jmp             UART_SER7
000F6A 1100       F    2979     UART_SER6:      call    UART_SER8
000F6C B40003          2980                             cjne    A, #00h, UART_SER7
000F6F F0              2981                             movx    @DPTR, A
000F70 801C            2982                             jmp             UART_SEND
000F72 F0              2983     UART_SER7:      movx    @DPTR, A
000F73 A3              2984                             inc             DPTR
000F74 05F0            2985                             inc             B
000F76 80AF            2986                             jmp             UART_SER1
000F78 83              2987     UART_SER8:      movc    A,@A+PC
000F79 22              2988                             ret
000F7A 53              2989                             DB              53h
000F7B 65              2990                             DB              65h
000F7C 72              2991                             DB              72h
000F7D 69              2992                             DB              69h
000F7E 61              2993                             DB              61h
000F7F 6C              2994                             DB              6Ch
000F80 6E              2995                             DB              6Eh
000F81 75              2996                             DB              75h
000F82 6D              2997                             DB              6Dh
000F83 62              2998                             DB              62h
000F84 65              2999                             DB              65h
000F85 72              3000                             DB              72h
000F86 3A              3001                             DB              3Ah
000F87 78              3002                             DB              78h
000F88 78              3003                             DB              78h
000F89 78              3004                             DB              78h
000F8A 78              3005                             DB              78h
000F8B 78              3006                             DB              78h
000F8C 00              3007                             DB              00h
000F8D 22              3008                             ret
                       3009     
                       3010     
000F8E D2A3            3011     UART_SEND:      setb    DE_RE
AX51 MACRO ASSEMBLER  MESSVERST_NEW                                                         01/07/24 00:14:01 PAGE    49

000F90 D200       F    3012                             setb    UART_SENDEN
000F92 D299            3013                             setb    SCON0_TI
000F94 2000FD          3014                             jb              UART_SENDEN, $
000F97 C2A3            3015                             clr             DE_RE
000F99 00              3016                             nop
                       3017     
000F9A 300003          3018     main0:          jnb             standby, main1
000F9D 020000     F    3019                             ljmp    write001
000FA0 300003          3020     main1:          jnb             Auto_zero_on, main2
000FA3 020000     F    3021                             ljmp    Zero
000FA6 300002          3022     main2:          jnb             SET_AUTOZERO, main3
000FA9 8019            3023                             jmp             main6
000FAB 200005          3024     main3:          jb              BIT_OVERRANGE, main4
000FAE 200013          3025                             jb              BIT_OVERVOLT, main6
000FB1 8008            3026                             jmp             main5
000FB3 C2A4            3027     main4:          clr             LED_GREEN
000FB5 D2A5            3028                             setb    LED_RED
000FB7 C2A6            3029                             clr     LED_WHITE
000FB9 8009            3030                             jmp             main6
000FBB 200006          3031     main5:          jb              KALIBRIEREN, main6  ;?
000FBE C2A4            3032                             clr             LED_GREEN
000FC0 C2A5            3033                             clr             LED_RED
000FC2 D2A6            3034                             setb    LED_WHITE
                       3035     
000FC4 20000C          3036     main6:          jb              KALIBRIEREN, main8 ;?
000FC7 300006          3037                             jnb             bootscreen_ok,  main7
000FCA 300003          3038                             jnb             press_screen_ok, main7
000FCD 200003          3039                             jb              ADC_messen, main8
000FD0 020000     F    3040     main7:          ljmp    main48
                       3041     
                       3042     
                       3043     
000FD3 75E686          3044     main8:          mov             EIE1, #86h
000FD6 75BB0F          3045                             mov             ADC0MX, #15d
000FD9 75DF3F          3046                             mov             ADC0CF2, #3Fh
000FDC 75B240          3047                             mov             ADC0CN1, #40h
                       3048     
000FDF 75C604          3049                             mov             ADC0LTH, #04h
000FE2 75C565          3050                             mov             ADC0LTL, #65h
                       3051     
000FE5 75C402          3052                             mov             ADC0GTH, #02h
000FE8 75C371          3053                             mov             ADC0GTL, #71h
                       3054     
000FEB D2EC            3055                             setb    ADC0CN0_ADBUSY
                       3056     
000FED 758CFF          3057                             mov             TH0, #0FFh
000FF0 758A00          3058                             mov             TL0, #00h
000FF3 C28D            3059                             clr             TCON_TF0
000FF5 308DFD          3060                             jnb             TCON_TF0, $
000FF8 A9BE            3061                             mov             R1, ADC0H
000FFA AABD            3062                             mov             R2, ADC0L
000FFC 30000C          3063                             jnb             ADC_WC_SET, main9
000FFF D200       F    3064                             setb    LP_1000HZ
001001 C200       F    3065                             clr             LP_300HZ
001003 C200       F    3066                             clr             LP_50HZ
001005 C200       F    3067                             clr             LP_OFF
001007 C200       F    3068                             clr             ADC_WC_SET
001009 0100       F    3069                             jmp             main13
                       3070     
                       3071     
                       3072     
00100B 75E686          3073     main9:          mov             EIE1, #86h
00100E 75BB0F          3074                             mov             ADC0MX, #15d
AX51 MACRO ASSEMBLER  MESSVERST_NEW                                                         01/07/24 00:14:01 PAGE    50

001011 75DF3F          3075                             mov             ADC0CF2, #3Fh
001014 75B240          3076                             mov             ADC0CN1, #40h
                       3077     
001017 75C607          3078                             mov             ADC0LTH, #07h
00101A 75C5D0          3079                             mov             ADC0LTL, #0D0h
                       3080     
00101D 75C405          3081                             mov             ADC0GTH, #05h
001020 75C3DC          3082                             mov             ADC0GTL, #0DCh
                       3083     
001023 D2EC            3084                             setb    ADC0CN0_ADBUSY
                       3085     
001025 758CFF          3086                             mov             TH0, #0FFh
001028 758A00          3087                             mov             TL0, #00h
00102B C28D            3088                             clr             TCON_TF0
00102D 308DFD          3089                             jnb             TCON_TF0, $
001030 A9BE            3090                             mov             R1, ADC0H
001032 AABD            3091                             mov             R2, ADC0L
001034 30000C          3092                             jnb             ADC_WC_SET, main10
001037 C200       F    3093                             clr             LP_1000HZ
001039 D200       F    3094                             setb    LP_300HZ
00103B C200       F    3095                             clr             LP_50HZ
00103D C200       F    3096                             clr             LP_OFF
00103F C200       F    3097                             clr             ADC_WC_SET
001041 8078            3098                             jmp             main13
                       3099     
                       3100     
                       3101     
001043 75E686          3102     main10:         mov             EIE1, #86h
001046 75BB0F          3103                             mov             ADC0MX, #15d
001049 75DF3F          3104                             mov             ADC0CF2, #3Fh
00104C 75B240          3105                             mov             ADC0CN1, #40h
                       3106     
00104F 75C60B          3107                             mov             ADC0LTH, #0Bh
001052 75C53B          3108                             mov             ADC0LTL, #3Bh
                       3109     
001055 75C409          3110                             mov             ADC0GTH, #09h
001058 75C347          3111                             mov             ADC0GTL, #47h
                       3112     
00105B D2EC            3113                             setb    ADC0CN0_ADBUSY
                       3114     
00105D 758CFF          3115                             mov             TH0, #0FFh
001060 758A00          3116                             mov             TL0, #00h
001063 C28D            3117                             clr             TCON_TF0
001065 308DFD          3118                             jnb             TCON_TF0, $
001068 A9BE            3119                             mov             R1, ADC0H
00106A AABD            3120                             mov             R2, ADC0L
00106C 30000C          3121                             jnb             ADC_WC_SET, main11
00106F C200       F    3122                             clr             LP_1000HZ
001071 C200       F    3123                             clr             LP_300HZ
001073 D200       F    3124                             setb    LP_50HZ
001075 C200       F    3125                             clr             LP_OFF
001077 C200       F    3126                             clr             ADC_WC_SET
001079 8040            3127                             jmp             main13
                       3128     
                       3129     
                       3130     
00107B 75E686          3131     main11:         mov             EIE1, #86h
00107E 75BB0F          3132                             mov             ADC0MX, #15d
001081 75DF3F          3133                             mov             ADC0CF2, #3Fh
001084 75B240          3134                             mov             ADC0CN1, #40h
                       3135     
001087 75C60E          3136                             mov             ADC0LTH, #0Eh
00108A 75C5A6          3137                             mov             ADC0LTL, #0A6h
AX51 MACRO ASSEMBLER  MESSVERST_NEW                                                         01/07/24 00:14:01 PAGE    51

                       3138     
00108D 75C407          3139                             mov             ADC0GTH, #07h
001090 75C3D0          3140                             mov             ADC0GTL, #0D0h
                       3141     
001093 D2EC            3142                             setb    ADC0CN0_ADBUSY
                       3143     
001095 758CFF          3144                             mov             TH0, #0FFh
001098 758A00          3145                             mov             TL0, #00h
00109B C28D            3146                             clr             TCON_TF0
00109D 308DFD          3147                             jnb             TCON_TF0, $
0010A0 A9BE            3148                             mov             R1, ADC0H
0010A2 AABD            3149                             mov             R2, ADC0L
0010A4 30000C          3150                             jnb             ADC_WC_SET, main12
0010A7 C200       F    3151                             clr             LP_1000HZ
0010A9 C200       F    3152                             clr             LP_300HZ
0010AB C200       F    3153                             clr             LP_50HZ
0010AD D200       F    3154                             setb    LP_OFF
0010AF C200       F    3155                             clr             ADC_WC_SET
0010B1 8008            3156                             jmp             main13
                       3157     
                       3158     
0010B3 C200       F    3159     main12:         clr             LP_1000HZ
0010B5 C200       F    3160                             clr             LP_300HZ
0010B7 C200       F    3161                             clr             LP_50HZ
0010B9 C200       F    3162                             clr             LP_OFF
                       3163     
                       3164     
0010BB 75E686          3165     main13:         mov             EIE1, #86h
0010BE 75BB00          3166                             mov             ADC0MX, #00h
0010C1 75DF3F          3167                             mov             ADC0CF2, #3Fh
0010C4 75B240          3168                             mov             ADC0CN1, #40h
0010C7 75C600          3169                             mov             ADC0LTH, #00h
0010CA 75C500          3170                             mov             ADC0LTL, #00h
0010CD 75C40E          3171                             mov             ADC0GTH, #0Eh
0010D0 75C3D8          3172                             mov             ADC0GTL, #0D8h
0010D3 D2EC            3173                             setb    ADC0CN0_ADBUSY
0010D5 30ECFD          3174                             jnb             ADC0CN0_ADBUSY, $
0010D8 758CFF          3175                             mov             TH0, #0FFh
0010DB 758A00          3176                             mov             TL0, #00h
0010DE C28D            3177                             clr             TCON_TF0
0010E0 308DFD          3178                             jnb             TCON_TF0, $
0010E3 A9BE            3179                             mov             R1, ADC0H
0010E5 AABD            3180                             mov             R2, ADC0L
0010E7 300006          3181                             jnb             ADC_WC_SET, main14
0010EA D200       F    3182                             setb    BIT_OVERVOLT
0010EC C200       F    3183                             clr             ADC_WC_SET
0010EE 8000            3184                             jmp             main15
0010F0                 3185     main14:
                       3186     
                       3187     
0010F0 75BB00          3188     main15:         mov             ADC0MX, #00h
0010F3 75C600          3189                             mov             ADC0LTH, #00h
0010F6 75C500          3190                             mov             ADC0LTL, #00h
0010F9 75C40F          3191                             mov             ADC0GTH, #0Fh
0010FC 75C3A0          3192                             mov             ADC0GTL, #0A0h
0010FF D2EC            3193                             setb    ADC0CN0_ADBUSY
001101 30ECFD          3194                             jnb             ADC0CN0_ADBUSY, $
001104 758CFF          3195                             mov             TH0, #0FFh
001107 758A00          3196                             mov             TL0, #00h
00110A C28D            3197                             clr             TCON_TF0
00110C 308DFD          3198                             jnb             TCON_TF0, $
00110F A9BE            3199                             mov             R1, ADC0H
001111 AABD            3200                             mov             R2, ADC0L
AX51 MACRO ASSEMBLER  MESSVERST_NEW                                                         01/07/24 00:14:01 PAGE    52

001113 300008          3201                             jnb             ADC_WC_SET, main16
001116 D200       F    3202                             setb    BIT_OVERRANGE
001118 D200       F    3203                             setb    BIT_OVERVOLT
00111A C200       F    3204                             clr             ADC_WC_SET
00111C 8001            3205                             jmp             main20
00111E 00              3206     main16:         nop
                       3207     
                       3208     
                       3209     
                       3210     
00111F C3              3211     main20:         clr             C
001120 B90100          3212                             cjne    R1, #01h, main21
001123 5008            3213     main21:         jnc             main23
001125 C3              3214                             clr             C
001126 BA0100          3215                             cjne    R2, #01h, main22
001129 5002            3216     main22:         jnc             main23
00112B 8006            3217                             jmp             main23_1
00112D D200       F    3218     main23:         setb    OUTPUT_POSITIV
00112F C200       F    3219                             clr             OUTPUT_NEGATIV
001131 8062            3220                             jmp             main29
                       3221     
                       3222     
                       3223     
001133 75BB01          3224     main23_1:       mov             ADC0MX, #01h
001136 75C600          3225                             mov             ADC0LTH, #00h
001139 75C500          3226                             mov             ADC0LTL, #00h
00113C 75C40E          3227                             mov             ADC0GTH, #0Eh
00113F 75C3D8          3228                             mov             ADC0GTL, #0D8h
001142 D2EC            3229                             setb    ADC0CN0_ADBUSY
001144 30ECFD          3230                             jnb             ADC0CN0_ADBUSY, $
001147 758CFF          3231                             mov             TH0, #0FFh
00114A 758A00          3232                             mov             TL0, #00h
00114D C28D            3233                             clr             TCON_TF0
00114F 308DFD          3234                             jnb             TCON_TF0, $
001152 A9BE            3235                             mov             R1, ADC0H
001154 AABD            3236                             mov             R2, ADC0L
001156 C200       F    3237                             clr             OUTPUT_POSITIV
001158 D200       F    3238                             setb    OUTPUT_NEGATIV
00115A 300006          3239                             jnb             ADC_WC_SET, main24
00115D D200       F    3240                             setb    BIT_OVERVOLT
00115F C200       F    3241                             clr             ADC_WC_SET
001161 8000            3242                             jmp             main25
001163                 3243     main24:
                       3244     
                       3245     
001163 75BB01          3246     main25:         mov             ADC0MX, #01h
001166 7900            3247                             mov             R1, #00h
001168 7A00            3248                             mov             R2, #00h
00116A 75C600          3249                             mov             ADC0LTH, #00h
00116D 75C500          3250                             mov             ADC0LTL, #00h
001170 75C40F          3251                             mov             ADC0GTH, #0Fh
001173 75C3A0          3252                             mov             ADC0GTL, #0A0h
001176 D2EC            3253                             setb    ADC0CN0_ADBUSY
001178 30ECFD          3254                             jnb             ADC0CN0_ADBUSY, $
00117B 758CFF          3255                             mov             TH0, #0FFh
00117E 758A00          3256                             mov             TL0, #00h
001181 C28D            3257                             clr             TCON_TF0
001183 308DFD          3258                             jnb             TCON_TF0, $
001186 A9BE            3259                             mov             R1, ADC0H
001188 AABD            3260                             mov             R2, ADC0L
00118A 300008          3261                             jnb             ADC_WC_SET, main29
00118D D200       F    3262                             setb    BIT_OVERVOLT
00118F D200       F    3263                             setb    BIT_OVERRANGE
AX51 MACRO ASSEMBLER  MESSVERST_NEW                                                         01/07/24 00:14:01 PAGE    53

001191 C200       F    3264                             clr             ADC_WC_SET
001193 8000            3265                             jmp             main29
                       3266     
                       3267     
                       3268     
                       3269     
                       3270     
001195 C200       F    3271     main29:         clr             ADC_messen
                       3272     
                       3273     
                       3274     
                       3275     
001197 300002          3276     main30:                 jnb             GAIN_SET, main30_00
00119A 8003            3277                                     jmp             main30_01
00119C 020000     F    3278     main30_00:              ljmp    main48
00119F 8915            3279     main30_01:              mov             0x15, R1
0011A1 8A16            3280                                     mov             0x16, R2
0011A3 8917            3281                                     mov             0x17, R1
0011A5 8A18            3282                                     mov             0x18, R2
0011A7 751900          3283                                     mov             0x19, #00h
0011AA 751A00          3284                                     mov             0x1A, #00h
0011AD 891B            3285                                     mov             0x1B, R1
0011AF 8A1C            3286                                     mov             0x1C, R2
                       3287     
                       3288     
                       3289     
0011B1 75F002          3290     main30_02:              mov             B, #2d
                       3291     
0011B4 E518            3292     main30_03:              mov             A, 0x18
0011B6 B40007          3293                                     cjne    A, #00h, main30_04
0011B9 E517            3294                                     mov             A, 0x17
0011BB B40006          3295                                     cjne    A, #00h, main30_05
0011BE 8021            3296                                     jmp             main30_08
                       3297     
0011C0 1518            3298     main30_04:              dec             0x18
0011C2 8007            3299                                     jmp             main30_06
                       3300     
0011C4 1517            3301     main30_05:              dec             0x17
0011C6 7518FF          3302                                     mov             0x18, #0FFh
0011C9 8000            3303                                     jmp             main30_06
                       3304     
0011CB D5F0E6          3305     main30_06:              djnz    B, main30_03
0011CE 75F002          3306                                     mov             B, #2d
0011D1 E51A            3307                                     mov             A, 0x1A
0011D3 B4FF07          3308                                     cjne    A, #0FFh, main30_07
0011D6 0519            3309                                     inc             0x19
0011D8 751A00          3310                                     mov             0x1A, #00h
0011DB 80D7            3311                                     jmp             main30_03
0011DD 051A            3312     main30_07:              inc     0x1A
0011DF 80D3            3313                                     jmp             main30_03
                       3314     
                       3315     
                       3316     
0011E1 EA              3317     main30_08:              MOV A,R2
0011E2 2516            3318                             ADD A,0x16
0011E4 FA              3319                             MOV R2,A
                       3320     
                       3321     
0011E5 E9              3322                             MOV A,R1
0011E6 3515            3323                             ADDC A,0x15
0011E8 F9              3324                             MOV R1,A
                       3325     
                       3326     
AX51 MACRO ASSEMBLER  MESSVERST_NEW                                                         01/07/24 00:14:01 PAGE    54

                       3327     
                       3328     
0011E9 EA              3329                                     MOV A,R2
0011EA 251A            3330                             ADD A,0x1A
0011EC FA              3331                             MOV R2,A
                       3332     
                       3333     
0011ED E9              3334                             MOV A,R1
0011EE 3519            3335                             ADDC A,0x19
0011F0 F9              3336                             MOV R1,A
                       3337     
                       3338     
0011F1 750A00          3339                                     mov             0x0A, #00h
0011F4 750B00          3340                                     mov             0x0B, #00h
0011F7 750C00          3341                                     mov             0x0C, #00h
0011FA 750D00          3342                                     mov             0x0D, #00h
0011FD 750E00          3343                                     mov             0x0E, #00h
                       3344     
001200 EA              3345     main31:                 mov             A, R2
001201 B4000B          3346                                     cjne    A, #00d, main33
001204 E9              3347                                     mov             A, R1
001205 B40002          3348                                     cjne    A, #00d, main32
001208 8041            3349                                     jmp             main48
00120A 19              3350     main32:                 dec             R1
00120B 7AFF            3351                                     mov             R2, #0FFh
00120D 8001            3352                                     jmp             main34
                       3353     
00120F 1A              3354     main33:                 dec             R2
                       3355     
001210 E50E            3356     main34:                 mov             A, 0x0E
001212 B40922          3357                                     cjne    A, #09d, main35
001215 750E00          3358                                     mov             0x0E, #00d
                       3359     
001218 E50D            3360                                     mov             A, 0x0D
00121A B4091E          3361                                     cjne    A, #09d, main36
00121D 750D00          3362                                     mov             0x0D, #00d
                       3363     
001220 E50C            3364                                     mov             A, 0x0C
001222 B4091A          3365                                     cjne    A, #09d, main37
001225 750C00          3366                                     mov             0x0C, #00d
                       3367     
001228 E50B            3368                                     mov             A, 0x0B
00122A B40916          3369                                     cjne    A, #09d, main38
00122D 750B00          3370                                     mov             0x0B, #00d
                       3371     
001230 E50A            3372                                     mov             A, 0x0A
001232 B40912          3373                                     cjne    A, #09d, main39
001235 8014            3374                                     jmp             main48
                       3375     
001237 050E            3376     main35:                 inc             0x0E
001239 80C5            3377                                     jmp             main31
00123B 050D            3378     main36:                 inc             0x0D
00123D 80C1            3379                                     jmp             main31
00123F 050C            3380     main37:                 inc             0x0C
001241 80BD            3381                                     jmp             main31
001243 050B            3382     main38:                 inc             0x0B
001245 80B9            3383                                     jmp             main31
001247 050A            3384     main39:                 inc             0x0A
001249 80B5            3385                                     jmp             main31
                       3386     
                       3387     
00124B 300018          3388     main48:         jnb             LCD_fertig, main50
                       3389     
AX51 MACRO ASSEMBLER  MESSVERST_NEW                                                         01/07/24 00:14:01 PAGE    55

00124E 20000C          3390                             jb              option_menu, main49
001251 200009          3391                             jb              LOCKED, main49
001254 200006          3392                             jb              RS485_mode, main49
001257 20000E          3393                             jb              encoder_up, gain_up
00125A 200015          3394                             jb              encoder_down, gain_down
00125D 200006          3395     main49:         jb              GAIN_SET, main50
001260 300003          3396                             jnb             SET_GAIN, main50
001263 020000     F    3397                             ljmp    set_Gain_1
                       3398     
001266 8023            3399     main50:         jmp             write001
                       3400     
                       3401     
001268 BC0604          3402     gain_up:        cjne    R4, #6d, gain_up2
00126B 7C00            3403                             mov             R4, #0d
00126D 800D            3404                             jmp             gain_delay
00126F 0C              3405     gain_up2:       inc             R4
001270 800A            3406                             jmp             gain_delay
001272 BC0004          3407     gain_down:      cjne    R4, #0d, gain_down2
001275 7C06            3408                             mov             R4, #6d
001277 8003            3409                             jmp             gain_delay
001279 1C              3410     gain_down2:     dec             R4
00127A 8000            3411                             jmp             gain_delay
                       3412     
00127C C200       F    3413     gain_delay:     clr             GAIN_SET
00127E C200       F    3414                             clr             SET_GAIN
001280 C200       F    3415                             clr             encoder_up
001282 C200       F    3416                             clr             encoder_down
001284 D200       F    3417                             setb    display_clr
001286 7B00            3418                             mov             R3, #00h
001288 020000     F    3419                             ljmp    DISPLAY
                       3420     
                       3421     
                       3422     
00128B 300003          3423     write001:       jnb             display_clr, write0001
00128E 020000     F    3424                             ljmp    DISPLAY
001291 200003          3425     write0001:      jb              Init_Display_OK, write002
001294 020000     F    3426                             ljmp    DISPLAY
001297 300003          3427     write002:       jnb             KALIBRIEREN, write002_0
00129A 020000     F    3428                             ljmp    KALIBRIER1
00129D 300003          3429     write002_0:     jnb             standby, write002_1
0012A0 020000     F    3430                             ljmp    write025_1
0012A3 30000F          3431     write002_1:     jnb             bootscreen_ok, write003
0012A6 300003          3432                             jnb             option_menu, write002_2
0012A9 020000     F    3433                             ljmp    option
0012AC 300003          3434     write002_2:     jnb             ERROR, write002_3
0012AF 020000     F    3435                             ljmp    ERROR1
0012B2 020000     F    3436     write002_3:     ljmp    betrieb
                       3437     
0012B5 300003          3438     write003:       jnb             bootscreen_loading, write003_1
0012B8 020000     F    3439                             ljmp    write020
0012BB C2A4            3440     write003_1:     clr             LED_GREEN
0012BD C2A5            3441                             clr             LED_RED
0012BF D2A6            3442                             setb    LED_WHITE
                       3443     
                       3444     
0012C1 BB4C20          3445     write004:       cjne    R3, #76d, write010
                       3446     
0012C4 7B15            3447                             mov             R3, #15h
0012C6 758921          3448                             mov             TMOD, #21h
                       3449     
0012C9 758C00          3450     write005:       mov             TH0, #00h
0012CC 758A00          3451                             mov             TL0, #00h
0012CF C28D            3452                             clr             TCON_TF0
AX51 MACRO ASSEMBLER  MESSVERST_NEW                                                         01/07/24 00:14:01 PAGE    56

0012D1 308DFD          3453     write006:       jnb             TCON_TF0, $
0012D4 1B              3454                             dec             R3
0012D5 BB00F1          3455                             cjne    R3, #00d, write005
0012D8 D200       F    3456     write007:       setb    bootscreen_loading
0012DA 758922          3457                             mov             TMOD, #22h
0012DD 7B00            3458                             mov             R3, #00h
0012DF D200       F    3459                             setb    display_clr
0012E1 020000     F    3460                             jmp             main
                       3461     
                       3462     
0012E4 BB3F0A          3463     write010:       cjne    R3, #63d, write011
0012E7 90E000          3464                             MOV     DPTR,#0E000h
0012EA E4              3465                             clr             A
0012EB 93              3466                             MOVC    A, @A+DPTR
0012EC F8              3467                             mov             R0, A
0012ED 0B              3468                             inc             R3
0012EE 020000     F    3469                             jmp             DISPLAY
                       3470     
0012F1 BB400A          3471     write011:       cjne    R3, #64d, write012
0012F4 E4              3472                             clr             A
0012F5 90E001          3473                             MOV     DPTR,#0E001h
0012F8 93              3474                             MOVC    A, @A+DPTR
0012F9 F8              3475                             mov             R0, A
0012FA 0B              3476                             inc             R3
0012FB 020000     F    3477                             jmp             DISPLAY
                       3478     
0012FE BB410A          3479     write012:       cjne    R3, #65d, write013
001301 E4              3480                             clr             A
001302 90E002          3481                             MOV     DPTR,#0E002h
001305 93              3482                             MOVC    A, @A+DPTR
001306 F8              3483                             mov             R0, A
001307 0B              3484                             inc             R3
001308 020000     F    3485                             jmp             DISPLAY
                       3486     
00130B BB420A          3487     write013:       cjne    R3, #66d, write014
00130E E4              3488                             clr             A
00130F 90E003          3489                             MOV     DPTR,#0E003h
001312 93              3490                             MOVC    A, @A+DPTR
001313 F8              3491                             mov             R0, A
001314 0B              3492                             inc             R3
001315 020000     F    3493                             jmp             DISPLAY
                       3494     
001318 BB430A          3495     write014:       cjne    R3, #67d, write015
00131B E4              3496                             clr             A
00131C 90E004          3497                             MOV     DPTR,#0E004h
00131F 93              3498                             MOVC    A, @A+DPTR
001320 F8              3499                             mov             R0, A
001321 0B              3500                             inc             R3
001322 020000     F    3501                             jmp             DISPLAY
                       3502     
001325 0B              3503     write015:       inc             R3
001326 EB              3504                             mov             A, R3
001327 1100       F    3505                             call    TAB_WRITE
001329 F8              3506                             mov             R0, A
00132A 020000     F    3507                             jmp             DISPLAY
                       3508     
00132D 83              3509     TAB_WRITE:      movc    A,@A+PC
00132E 22              3510                             ret
                       3511     
00132F 20              3512                             DB              20h
001330 20              3513                             DB              20h
001331 20              3514                             DB              20h
001332 20              3515                             DB              20h
AX51 MACRO ASSEMBLER  MESSVERST_NEW                                                         01/07/24 00:14:01 PAGE    57

001333 20              3516                             DB              20h
001334 20              3517                             DB              20h
001335 20              3518                             DB              20h
001336 20              3519                             DB              20h
001337 20              3520                             DB              20h
001338 20              3521                             DB              20h
001339 20              3522                             DB              20h
00133A 20              3523                             DB              20h
00133B 20              3524                             DB              20h
00133C 20              3525                             DB              20h
00133D 20              3526                             DB              20h
00133E 20              3527                             DB              20h
                       3528     
                       3529     
00133F 20              3530                             DB              20h
001340 20              3531                             DB              20h
001341 20              3532                             DB              20h
001342 20              3533                             DB              20h
                       3534     
001343 20              3535                             DB              20h
001344 20              3536                             DB              20h
001345 20              3537                             DB              20h
001346 20              3538                             DB              20h
001347 46              3539                             DB              46h
001348 52              3540                             DB              52h
001349 41              3541                             DB              41h
00134A 43              3542                             DB              43h
00134B 54              3543                             DB              54h
00134C 55              3544                             DB              55h
00134D 52              3545                             DB              52h
00134E 45              3546                             DB              45h
00134F 20              3547                             DB              20h
001350 20              3548                             DB              20h
001351 20              3549                             DB              20h
001352 20              3550                             DB              20h
                       3551     
001353 20              3552                             DB              20h
001354 20              3553                             DB              20h
001355 20              3554                             DB              20h
001356 20              3555                             DB              20h
                       3556     
                       3557     
001357 20              3558                             DB              20h
001358 20              3559                             DB              20h
001359 20              3560                             DB              20h
00135A 54              3561                             DB              54h
00135B 45              3562                             DB              45h
00135C 43              3563                             DB              43h
00135D 48              3564                             DB              48h
00135E 4E              3565                             DB              4Eh
00135F 4F              3566                             DB              4Fh
001360 4C              3567                             DB              4Ch
001361 4F              3568                             DB              4Fh
001362 47              3569                             DB              47h
001363 59              3570                             DB              59h
001364 20              3571                             DB              20h
001365 20              3572                             DB              20h
001366 20              3573                             DB              20h
                       3574     
001367 20              3575                             DB              20h
001368 20              3576                             DB              20h
001369 20              3577                             DB              20h
00136A 20              3578                             DB              20h
AX51 MACRO ASSEMBLER  MESSVERST_NEW                                                         01/07/24 00:14:01 PAGE    58

                       3579     
00136B 53              3580                             DB              53h
00136C 4E              3581                             DB              4Eh
00136D 3A              3582                             DB              3Ah
00136E 20              3583                             DB              20h
00136F 20              3584                             DB              20h
001370 20              3585                             DB              20h
001371 20              3586                             DB              20h
001372 20              3587                             DB              20h
001373 20              3588                             DB              20h
001374 20              3589                             DB              20h
001375 20              3590                             DB              20h
001376 76              3591                             DB              76h
001377 31              3592                             DB              31h
001378 2E              3593                             DB              2Eh
001379 30              3594                             DB              30h
00137A 37              3595                             DB              37h
                       3596     
00137B 22              3597                             ret
                       3598     
                       3599     
                       3600     
00137C C2A4            3601     write020:       clr             LED_GREEN
00137E C2A5            3602                             clr             LED_RED
001380 D2A6            3603                             setb    LED_WHITE
                       3604     
                       3605     
                       3606     
001382                 3607     write021:
001382 D200       F    3608                             setb    bootscreen_ok
001384 D200       F    3609                             setb    standby
001386 020000     F    3610                             ljmp    write025_1
                       3611     
001389 BB4C68          3612                             cjne    R3, #76d, write027
00138C D200       F    3613                             setb    bootscreen_ok
00138E C2AF            3614                             clr             IE_EA
                       3615     
001390 7B55            3616                             mov             R3, #55h
001392 758921          3617                             mov             TMOD, #21h
001395 758C00          3618     write023:       mov             TH0, #00h
001398 758A00          3619                             mov             TL0, #00h
00139B C28D            3620                             clr             TCON_TF0
00139D 209602          3621     write024:       jb              ENCODER_MID, write025
0013A0 8039            3622                             jmp             write026
0013A2 308DF8          3623     write025:       jnb             TCON_TF0, write024
0013A5 1B              3624                             dec             R3
0013A6 BB00EC          3625                             cjne    R3, #00d, write023
0013A9 D200       F    3626                             setb    standby
                       3627     
                       3628     
0013AB C2A1            3629     write025_1:     clr             RST_DISPLAY
0013AD 758C00          3630                             mov             TH0, #00h
0013B0 758A00          3631                             mov             TL0, #00h
0013B3 C28D            3632                             clr             TCON_TF0
0013B5 308DFD          3633                             jnb             TCON_TF0, $
0013B8 D2A1            3634                             setb    RST_DISPLAY
                       3635     
                       3636     
0013BA C2A4            3637                             clr             LED_GREEN
0013BC C2A5            3638                             clr             LED_RED
0013BE C2A6            3639                             clr             LED_WHITE
0013C0 3096FD          3640                             jnb             ENCODER_mid, $
0013C3 758C00          3641                             mov             TH0, #00h
AX51 MACRO ASSEMBLER  MESSVERST_NEW                                                         01/07/24 00:14:01 PAGE    59

0013C6 758A00          3642                             mov             TL0, #00h
0013C9 C28D            3643                             clr             TCON_TF0
0013CB 308DFD          3644                             jnb             TCON_TF0, $
0013CE 75EE70          3645                             mov             P1MASK, #70h
0013D1 D297            3646                             setb    E
0013D3 C2AF            3647                             clr             IE_EA
0013D5 200003          3648                             jb              RS485_mode, write026
0013D8 2096FD          3649                             jb              ENCODER_MID, $
0013DB D2AF            3650     write026:       setb    IE_EA
0013DD C297            3651                             clr             E
0013DF D200       F    3652                             setb    press_screen_ok
0013E1 758922          3653                             mov             TMOD, #22h
0013E4 7B00            3654                             mov             R3, #00h
0013E6 75E68A          3655                             mov             EIE1, #8Ah
0013E9 C200       F    3656                             clr             standby
0013EB C200       F    3657                             clr             encoder_up
0013ED C200       F    3658                             clr             encoder_down
0013EF C200       F    3659                             clr             Init_Display_OK
0013F1 020000     F    3660                             ljmp    main
                       3661     
                       3662     
0013F4 0B              3663     write027:       inc             R3
0013F5 EB              3664                             mov             A, R3
0013F6 1100       F    3665                             call    TAB_PRESS
0013F8 F8              3666                             mov             R0, A
0013F9 020000     F    3667                             jmp             DISPLAY
                       3668     
0013FC 83              3669     TAB_PRESS:      movc    A,@A+PC
0013FD 22              3670                             ret
                       3671     
0013FE 20              3672                             DB              20h
0013FF 20              3673                             DB              20h
001400 20              3674                             DB              20h
001401 20              3675                             DB              20h
001402 20              3676                             DB              20h
001403 20              3677                             DB              20h
001404 20              3678                             DB              20h
001405 20              3679                             DB              20h
001406 20              3680                             DB              20h
001407 20              3681                             DB              20h
001408 20              3682                             DB              20h
001409 20              3683                             DB              20h
00140A 20              3684                             DB              20h
00140B 20              3685                             DB              20h
00140C 20              3686                             DB              20h
00140D 20              3687                             DB              20h
                       3688     
                       3689     
00140E 20              3690                             DB              20h
00140F 20              3691                             DB              20h
001410 20              3692                             DB              20h
001411 20              3693                             DB              20h
                       3694     
001412 20              3695                             DB              20h
001413 50              3696                             DB              50h
001414 72              3697                             DB              72h
001415 65              3698                             DB              65h
001416 73              3699                             DB              73h
001417 73              3700                             DB              73h
001418 20              3701                             DB              20h
001419 20              3702                             DB              20h
00141A 41              3703                             DB              41h
00141B 44              3704                             DB              44h
AX51 MACRO ASSEMBLER  MESSVERST_NEW                                                         01/07/24 00:14:01 PAGE    60

00141C 4A              3705                             DB              4Ah
00141D 55              3706                             DB              55h
00141E 53              3707                             DB              53h
00141F 54              3708                             DB              54h
001420 20              3709                             DB              20h
001421 20              3710                             DB              20h
                       3711     
001422 20              3712                             DB              20h
001423 20              3713                             DB              20h
001424 20              3714                             DB              20h
001425 20              3715                             DB              20h
                       3716     
                       3717     
001426 20              3718                             DB              20h
001427 20              3719                             DB              20h
001428 74              3720                             DB              74h
001429 6F              3721                             DB              6Fh
00142A 20              3722                             DB              20h
00142B 61              3723                             DB              61h
00142C 63              3724                             DB              63h
00142D 74              3725                             DB              74h
00142E 69              3726                             DB              69h
00142F 76              3727                             DB              76h
001430 61              3728                             DB              61h
001431 74              3729                             DB              74h
001432 65              3730                             DB              65h
001433 20              3731                             DB              20h
001434 20              3732                             DB              20h
001435 20              3733                             DB              20h
                       3734     
                       3735     
001436 20              3736                             DB              20h
001437 20              3737                             DB              20h
001438 20              3738                             DB              20h
001439 20              3739                             DB              20h
                       3740     
00143A 20              3741                             DB              20h
00143B 20              3742                             DB              20h
00143C 20              3743                             DB              20h
00143D 20              3744                             DB              20h
00143E 20              3745                             DB              20h
00143F 20              3746                             DB              20h
001440 20              3747                             DB              20h
001441 20              3748                             DB              20h
001442 20              3749                             DB              20h
001443 20              3750                             DB              20h
001444 20              3751                             DB              20h
001445 20              3752                             DB              20h
001446 20              3753                             DB              20h
001447 20              3754                             DB              20h
001448 20              3755                             DB              20h
001449 20              3756                             DB              20h
                       3757     
00144A 22              3758                             ret
                       3759     
                       3760     
                       3761     
                       3762     
                       3763     
                       3764     
00144B C200       F    3765     betrieb:        clr             LCD_fertig
                       3766     
                       3767     
AX51 MACRO ASSEMBLER  MESSVERST_NEW                                                         01/07/24 00:14:01 PAGE    61

                       3768     
00144D 20002A          3769     betrieb1:       jb              erste_zeile, betrieb5
001450 BB1406          3770                             cjne    R3, #20d, betrieb2
001453 7B00            3771                             mov             R3, #00h
001455 D200       F    3772                             setb    erste_zeile
001457 8021            3773                             jmp             betrieb5
001459 20000F          3774     betrieb2:       jb              SET_AUTOZERO, betrieb3
00145C 20000F          3775                             jb              LP_1000HZ, betrieb3_1
00145F 20000F          3776                             jb              LP_300HZ, betrieb3_2
001462 20000F          3777                             jb              LP_50HZ, betrieb3_3
001465 20000F          3778                             jb              LP_OFF, betrieb3_4
001468 020000     F    3779                             ljmp    betrieb800
00146B                 3780     betrieb3:
                       3781     
                       3782     
00146B 020000     F    3783                             ljmp    betrieb810
                       3784     
00146E 020000     F    3785     betrieb3_1:     ljmp    betrieb801
001471 020000     F    3786     betrieb3_2:     ljmp    betrieb802
001474 020000     F    3787     betrieb3_3:     ljmp    betrieb803
001477 020000     F    3788     betrieb3_4:     ljmp    betrieb804
                       3789     
                       3790     
00147A 20003C          3791     betrieb5:       jb              zweite_zeile, betrieb10
00147D BB1406          3792                             cjne    R3, #20d, betrieb6
001480 7B00            3793                             mov             R3, #00h
001482 D200       F    3794                             setb    zweite_zeile
001484 8033            3795                             jmp             betrieb10
                       3796     
001486 20000C          3797     betrieb6:       jb              BIT_OVERVOLT, betrieb7
001489 200006          3798                             jb              LOCKED, betrieb6_1
00148C 200021          3799                             jb              RS485_mode, betrieb8_2
00148F 020000     F    3800                             ljmp    betrieb820
001492 020000     F    3801     betrieb6_1:     ljmp    betrieb832
                       3802     
001495 20000C          3803     betrieb7:       jb              BIT_OVERRANGE, betrieb8
001498 200006          3804                             jb              LOCKED, betrieb7_1
00149B 200018          3805                             jb              RS485_mode, betrieb8_4
00149E 020000     F    3806                             ljmp    betrieb831
0014A1 020000     F    3807     betrieb7_1:     ljmp    betrieb834
                       3808     
0014A4 200006          3809     betrieb8:       jb              LOCKED, betrieb8_1
0014A7 200009          3810                             jb              RS485_mode, betrieb8_3
0014AA 020000     F    3811                             ljmp    betrieb830
0014AD 020000     F    3812     betrieb8_1:     ljmp    betrieb833
0014B0 020000     F    3813     betrieb8_2:     ljmp    betrieb835
0014B3 020000     F    3814     betrieb8_3:     ljmp    betrieb836
0014B6 020000     F    3815     betrieb8_4:     ljmp    betrieb837
                       3816     
0014B9 200039          3817     betrieb10:      jb              dritte_zeile, betrieb20
0014BC BB1406          3818                             cjne    R3, #20d, betrieb11
0014BF 7B00            3819                             mov             R3, #00h
0014C1 D200       F    3820                             setb    dritte_zeile
0014C3 8030            3821                             jmp             betrieb20
0014C5 BC0003          3822     betrieb11:      cjne    R4, #0d, betrieb12
0014C8 020000     F    3823                             ljmp    GAIN500
0014CB BC0103          3824     betrieb12:      cjne    R4, #1d, betrieb13
0014CE 020000     F    3825                             ljmp    GAIN1K
0014D1 BC0203          3826     betrieb13:      cjne    R4, #2d, betrieb14
0014D4 020000     F    3827                             ljmp    GAIN2K
0014D7 BC0303          3828     betrieb14:      cjne    R4, #3d, betrieb15
0014DA 020000     F    3829                             ljmp    GAIN5K
0014DD BC0403          3830     betrieb15:      cjne    R4, #4d, betrieb16
AX51 MACRO ASSEMBLER  MESSVERST_NEW                                                         01/07/24 00:14:01 PAGE    62

0014E0 020000     F    3831                             ljmp    GAIN10K
0014E3 BC0503          3832     betrieb16:      cjne    R4, #5d, betrieb17
0014E6 020000     F    3833                             ljmp    GAIN25K
0014E9 BC0603          3834     betrieb17:      cjne    R4, #6d, betrieb18
0014EC 020000     F    3835                             ljmp    GAIN50K
0014EF BC0703          3836     betrieb18:      cjne    R4, #7d, betrieb20
0014F2 020000     F    3837                             ljmp    GAIN60K
                       3838     
                       3839     
                       3840     
0014F5 BB1004          3841     betrieb20:      cjne    R3, #16d, betrieb21
0014F8 7B00            3842                             mov             R3, #00h
0014FA 8012            3843                             jmp             betrieb100
0014FC 200006          3844     betrieb21:      jb              SET_AUTOZERO, betrieb21_1
0014FF 300009          3845                             jnb             GAIN_SET, betrieb23
001502 200003          3846                             jb              OutputVoltage, betrieb22
001505 020000     F    3847     betrieb21_1:ljmp        betrieb840
                       3848     
                       3849     
001508 020000     F    3850     betrieb22:      ljmp    betrieb860
00150B 020000     F    3851     betrieb23:      ljmp    betrieb850
                       3852     
                       3853     
00150E 300003          3854     betrieb100:     jnb             Auto_zero_on, betrieb101
001511 020000     F    3855                             ljmp    ZERO
001514 7BCC            3856     betrieb101:     mov             R3, #0cch
001516 758C00          3857     betrieb102:     mov             TH0, #00h
001519 758A00          3858                             mov             TL0, #00h
00151C 308DFD          3859                             jnb             TCON_TF0, $
00151F C28D            3860                             clr             TCON_TF0
001521 DBF3            3861                             djnz    R3, betrieb102
001523 D200       F    3862                             setb    display_clr
                       3863     
001525 C200       F    3864                             clr             erste_zeile
001527 C200       F    3865                             clr             zweite_zeile
001529 C200       F    3866                             clr             dritte_zeile
00152B D200       F    3867                             setb    LCD_fertig
00152D 200003          3868                             jb              SET_AUTOZERO, betrieb103
001530 020000     F    3869                             ljmp    main
                       3870     
001533 D50F05          3871     betrieb103:     djnz    0x0F,betrieb104
001536 750F02          3872                             mov             0x0F, #2d
001539 D200       F    3873                             setb    Auto_zero_on
00153B 020000     F    3874     betrieb104:     ljmp    main
                       3875     
                       3876     
00153E 0B              3877     betrieb800:     inc             R3
00153F EB              3878                             mov             A, R3
001540 1100       F    3879                             call    TAB_1Z_1
001542 F8              3880                             mov             R0, A
001543 020000     F    3881                             ljmp    DISPLAY
                       3882     
001546 83              3883     TAB_1Z_1:       movc    A,@A+PC
001547 22              3884                             ret
001548 20              3885                             DB              20h
001549 20              3886                             DB              20h
00154A 20              3887                             DB              20h
00154B 20              3888                             DB              20h
00154C 20              3889                             DB              20h
00154D 20              3890                             DB              20h
00154E 20              3891                             DB              20h
00154F 20              3892                             DB              20h
001550 20              3893                             DB              20h
AX51 MACRO ASSEMBLER  MESSVERST_NEW                                                         01/07/24 00:14:01 PAGE    63

001551 20              3894                             DB              20h
001552 20              3895                             DB              20h
001553 20              3896                             DB              20h
001554 20              3897                             DB              20h
001555 20              3898                             DB              20h
001556 20              3899                             DB              20h
001557 20              3900                             DB              20h
                       3901     
001558 20              3902                             DB              20h
001559 20              3903                             DB              20h
00155A 20              3904                             DB              20h
00155B 20              3905                             DB              20h
00155C 22              3906                             RET
                       3907     
                       3908     
00155D 0B              3909     betrieb801:     inc             R3
00155E EB              3910                             mov             A, R3
00155F 1100       F    3911                             call    TAB_1Z_2
001561 F8              3912                             mov             R0, A
001562 020000     F    3913                             ljmp    DISPLAY
                       3914     
001565 83              3915     TAB_1Z_2:       movc    A,@A+PC
001566 22              3916                             ret
                       3917     
001567 4C              3918                             DB              4Ch
001568 50              3919                             DB              50h
001569 2D              3920                             DB              2Dh
00156A 46              3921                             DB              46h
00156B 49              3922                             DB              49h
00156C 4C              3923                             DB              4Ch
00156D 54              3924                             DB              54h
00156E 45              3925                             DB              45h
00156F 52              3926                             DB              52h
001570 20              3927                             DB              20h
001571 31              3928                             DB              31h
001572 30              3929                             DB              30h
001573 30              3930                             DB              30h
001574 30              3931                             DB              30h
001575 48              3932                             DB              48h
001576 7A              3933                             DB              7Ah
                       3934     
001577 20              3935                             DB              20h
001578 20              3936                             DB              20h
001579 20              3937                             DB              20h
00157A 20              3938                             DB              20h
00157B 22              3939                             RET
                       3940     
                       3941     
00157C 0B              3942     betrieb802:     inc             R3
00157D EB              3943                             mov             A, R3
00157E 1100       F    3944                             call    TAB_1Z_3
001580 F8              3945                             mov             R0, A
001581 020000     F    3946                             ljmp    DISPLAY
                       3947     
001584 83              3948     TAB_1Z_3:       movc    A,@A+PC
001585 22              3949                             ret
                       3950     
001586 4C              3951                             DB              4Ch
001587 50              3952                             DB              50h
001588 2D              3953                             DB              2Dh
001589 46              3954                             DB              46h
00158A 49              3955                             DB              49h
00158B 4C              3956                             DB              4Ch
AX51 MACRO ASSEMBLER  MESSVERST_NEW                                                         01/07/24 00:14:01 PAGE    64

00158C 54              3957                             DB              54h
00158D 45              3958                             DB              45h
00158E 52              3959                             DB              52h
00158F 20              3960                             DB              20h
001590 20              3961                             DB              20h
001591 33              3962                             DB              33h
001592 30              3963                             DB              30h
001593 30              3964                             DB              30h
001594 48              3965                             DB              48h
001595 7A              3966                             DB              7Ah
                       3967     
001596 20              3968                             DB              20h
001597 20              3969                             DB              20h
001598 20              3970                             DB              20h
001599 20              3971                             DB              20h
00159A 22              3972                             RET
                       3973     
                       3974     
00159B 0B              3975     betrieb803:     inc             R3
00159C EB              3976                             mov             A, R3
00159D 1100       F    3977                             call    TAB_1Z_4
00159F F8              3978                             mov             R0, A
0015A0 020000     F    3979                             ljmp    DISPLAY
                       3980     
0015A3 83              3981     TAB_1Z_4:       movc    A,@A+PC
0015A4 22              3982                             ret
                       3983     
0015A5 4C              3984                             DB              4Ch
0015A6 50              3985                             DB              50h
0015A7 2D              3986                             DB              2Dh
0015A8 46              3987                             DB              46h
0015A9 49              3988                             DB              49h
0015AA 4C              3989                             DB              4Ch
0015AB 54              3990                             DB              54h
0015AC 45              3991                             DB              45h
0015AD 52              3992                             DB              52h
0015AE 20              3993                             DB              20h
0015AF 20              3994                             DB              20h
0015B0 20              3995                             DB              20h
0015B1 35              3996                             DB              35h
0015B2 30              3997                             DB              30h
0015B3 48              3998                             DB              48h
0015B4 7A              3999                             DB              7Ah
                       4000     
0015B5 20              4001                             DB              20h
0015B6 20              4002                             DB              20h
0015B7 20              4003                             DB              20h
0015B8 20              4004                             DB              20h
0015B9 22              4005                             RET
                       4006     
                       4007     
0015BA 0B              4008     betrieb804:     inc             R3
0015BB EB              4009                             mov             A, R3
0015BC 1100       F    4010                             call    TAB_1Z_5
0015BE F8              4011                             mov             R0, A
0015BF 020000     F    4012                             ljmp    DISPLAY
                       4013     
0015C2 83              4014     TAB_1Z_5:       movc    A,@A+PC
0015C3 22              4015                             ret
                       4016     
0015C4 4C              4017                             DB              4Ch
0015C5 50              4018                             DB              50h
0015C6 2D              4019                             DB              2Dh
AX51 MACRO ASSEMBLER  MESSVERST_NEW                                                         01/07/24 00:14:01 PAGE    65

0015C7 46              4020                             DB              46h
0015C8 49              4021                             DB              49h
0015C9 4C              4022                             DB              4Ch
0015CA 54              4023                             DB              54h
0015CB 45              4024                             DB              45h
0015CC 52              4025                             DB              52h
0015CD 20              4026                             DB              20h
0015CE 20              4027                             DB              20h
0015CF 20              4028                             DB              20h
0015D0 20              4029                             DB              20h
0015D1 4F              4030                             DB              4Fh
0015D2 46              4031                             DB              46h
0015D3 46              4032                             DB              46h
                       4033     
0015D4 20              4034                             DB              20h
0015D5 20              4035                             DB              20h
0015D6 20              4036                             DB              20h
0015D7 20              4037                             DB              20h
0015D8 22              4038                             RET
                       4039     
                       4040     
0015D9 0B              4041     betrieb810:     inc             R3
0015DA EB              4042                             mov             A, R3
0015DB 1100       F    4043                             call    TAB_1Z_10
0015DD F8              4044                             mov             R0, A
0015DE 020000     F    4045                             ljmp    DISPLAY
                       4046     
0015E1 83              4047     TAB_1Z_10:      movc    A,@A+PC
0015E2 22              4048                             ret
0015E3 20              4049                             DB              20h
0015E4 20              4050                             DB              20h
0015E5 2A              4051                             DB              2Ah
0015E6 2A              4052                             DB              2Ah
0015E7 41              4053                             DB              41h
0015E8 55              4054                             DB              55h
0015E9 54              4055                             DB              54h
0015EA 4F              4056                             DB              4Fh
0015EB 5A              4057                             DB              5Ah
0015EC 45              4058                             DB              45h
0015ED 52              4059                             DB              52h
0015EE 4F              4060                             DB              4Fh
0015EF 2A              4061                             DB              2Ah
0015F0 2A              4062                             DB              2Ah
0015F1 20              4063                             DB              20h
0015F2 20              4064                             DB              20h
                       4065     
0015F3 20              4066                             DB              20h
0015F4 20              4067                             DB              20h
0015F5 20              4068                             DB              20h
0015F6 20              4069                             DB              20h
0015F7 22              4070                             RET
                       4071     
                       4072     
0015F8 0B              4073     betrieb820:     inc             R3
0015F9 EB              4074                             mov             A, R3
0015FA 1100       F    4075                             call    TAB_2Z_1
0015FC F8              4076                             mov             R0, A
0015FD 020000     F    4077                             ljmp    DISPLAY
                       4078     
001600 83              4079     TAB_2Z_1:       movc    A,@A+PC
001601 22              4080                             ret
001602 20              4081                             DB              20h
001603 20              4082                             DB              20h
AX51 MACRO ASSEMBLER  MESSVERST_NEW                                                         01/07/24 00:14:01 PAGE    66

001604 20              4083                             DB              20h
001605 20              4084                             DB              20h
001606 20              4085                             DB              20h
001607 20              4086                             DB              20h
001608 20              4087                             DB              20h
001609 20              4088                             DB              20h
00160A 20              4089                             DB              20h
00160B 20              4090                             DB              20h
00160C 20              4091                             DB              20h
00160D 20              4092                             DB              20h
00160E 20              4093                             DB              20h
00160F 20              4094                             DB              20h
001610 20              4095                             DB              20h
001611 20              4096                             DB              20h
                       4097     
001612 20              4098                             DB              20h
001613 20              4099                             DB              20h
001614 20              4100                             DB              20h
001615 20              4101                             DB              20h
001616 22              4102                             RET
                       4103     
                       4104     
001617 0B              4105     betrieb830:     inc             R3
001618 EB              4106                             mov             A, R3
001619 1100       F    4107                             call    TAB_2Z_2
00161B F8              4108                             mov             R0, A
00161C 020000     F    4109                             ljmp    DISPLAY
                       4110     
00161F 83              4111     TAB_2Z_2:       movc    A,@A+PC
001620 22              4112                             ret
001621 20              4113                             DB              20h
001622 20              4114                             DB              20h
001623 20              4115                             DB              20h
001624 4F              4116                             DB              4Fh
001625 56              4117                             DB              56h
001626 45              4118                             DB              45h
001627 52              4119                             DB              52h
001628 52              4120                             DB              52h
001629 41              4121                             DB              41h
00162A 4E              4122                             DB              4Eh
00162B 47              4123                             DB              47h
00162C 45              4124                             DB              45h
00162D 21              4125                             DB              21h
00162E 20              4126                             DB              20h
00162F 20              4127                             DB              20h
001630 20              4128                             DB              20h
                       4129     
001631 20              4130                             DB              20h
001632 20              4131                             DB              20h
001633 20              4132                             DB              20h
001634 20              4133                             DB              20h
001635 22              4134                             RET
                       4135     
                       4136     
001636 0B              4137     betrieb831:     inc             R3
001637 EB              4138                             mov             A, R3
001638 1100       F    4139                             call    TAB_2Z_3
00163A F8              4140                             mov             R0, A
00163B 020000     F    4141                             ljmp    DISPLAY
00163E 83              4142     TAB_2Z_3:       movc    A,@A+PC
00163F 22              4143                             ret
001640 20              4144                             DB              20h
001641 20              4145                             DB              20h
AX51 MACRO ASSEMBLER  MESSVERST_NEW                                                         01/07/24 00:14:01 PAGE    67

001642 4F              4146                             DB              4Fh
001643 55              4147                             DB              55h
001644 54              4148                             DB              54h
001645 50              4149                             DB              50h
001646 55              4150                             DB              55h
001647 54              4151                             DB              54h
001648 20              4152                             DB              20h
001649 3E              4153                             DB              3Eh
00164A 39              4154                             DB              39h
00164B 2E              4155                             DB              2Eh
00164C 35              4156                             DB              35h
00164D 56              4157                             DB              56h
00164E 20              4158                             DB              20h
00164F 20              4159                             DB              20h
                       4160     
001650 20              4161                             DB              20h
001651 20              4162                             DB              20h
001652 20              4163                             DB              20h
001653 20              4164                             DB              20h
001654 22              4165                             RET
                       4166     
                       4167     
001655 0B              4168     betrieb832:     inc             R3
001656 EB              4169                             mov             A, R3
001657 1100       F    4170                             call    TAB_2Z_4
001659 F8              4171                             mov             R0, A
00165A 020000     F    4172                             ljmp    DISPLAY
                       4173     
00165D 83              4174     TAB_2Z_4:       movc    A,@A+PC
00165E 22              4175                             ret
00165F 20              4176                             DB              20h
001660 20              4177                             DB              20h
001661 20              4178                             DB              20h
001662 20              4179                             DB              20h
001663 2A              4180                             DB              2Ah
001664 4C              4181                             DB              4Ch
001665 4F              4182                             DB              4Fh
001666 43              4183                             DB              43h
001667 4B              4184                             DB              4Bh
001668 45              4185                             DB              45h
001669 44              4186                             DB              44h
00166A 2A              4187                             DB              2Ah
00166B 20              4188                             DB              20h
00166C 20              4189                             DB              20h
00166D 20              4190                             DB              20h
00166E 20              4191                             DB              20h
                       4192     
00166F 20              4193                             DB              20h
001670 20              4194                             DB              20h
001671 20              4195                             DB              20h
001672 20              4196                             DB              20h
001673 22              4197                             RET
                       4198     
                       4199     
001674 0B              4200     betrieb833:     inc             R3
001675 EB              4201                             mov             A, R3
001676 1100       F    4202                             call    TAB_2Z_5
001678 F8              4203                             mov             R0, A
001679 020000     F    4204                             ljmp    DISPLAY
                       4205     
00167C 83              4206     TAB_2Z_5:       movc    A,@A+PC
00167D 22              4207                             ret
00167E 2A              4208                             DB              2Ah
AX51 MACRO ASSEMBLER  MESSVERST_NEW                                                         01/07/24 00:14:01 PAGE    68

00167F 4C              4209                             DB              4Ch
001680 4F              4210                             DB              4Fh
001681 43              4211                             DB              43h
001682 4B              4212                             DB              4Bh
001683 2A              4213                             DB              2Ah
001684 4F              4214                             DB              4Fh
001685 56              4215                             DB              56h
001686 45              4216                             DB              45h
001687 52              4217                             DB              52h
001688 52              4218                             DB              52h
001689 41              4219                             DB              41h
00168A 4E              4220                             DB              4Eh
00168B 47              4221                             DB              47h
00168C 45              4222                             DB              45h
00168D 21              4223                             DB              21h
                       4224     
                       4225     
00168E 20              4226                             DB              20h
00168F 20              4227                             DB              20h
001690 20              4228                             DB              20h
001691 20              4229                             DB              20h
001692 22              4230                             RET
                       4231     
                       4232     
001693 0B              4233     betrieb834:     inc              R3
001694 EB              4234                             mov             A, R3
001695 1100       F    4235                             call    TAB_2Z_6
001697 F8              4236                             mov             R0, A
001698 020000     F    4237                             ljmp    DISPLAY
00169B 83              4238     TAB_2Z_6:       movc    A,@A+PC
00169C 22              4239                             ret
00169D 4C              4240                             DB              4Ch
00169E 4F              4241                             DB              4Fh
00169F 43              4242                             DB              43h
0016A0 4B              4243                             DB              4Bh
0016A1 2A              4244                             DB              2Ah
0016A2 4F              4245                             DB              4Fh
0016A3 55              4246                             DB              55h
0016A4 54              4247                             DB              54h
0016A5 50              4248                             DB              50h
0016A6 55              4249                             DB              55h
0016A7 54              4250                             DB              54h
0016A8 3E              4251                             DB              3Eh
0016A9 39              4252                             DB              39h
0016AA 2E              4253                             DB              2Eh
0016AB 35              4254                             DB              35h
0016AC 56              4255                             DB              56h
                       4256     
                       4257     
0016AD 20              4258                             DB              20h
0016AE 20              4259                             DB              20h
0016AF 20              4260                             DB              20h
0016B0 20              4261                             DB              20h
0016B1 22              4262                             RET
                       4263     
                       4264     
                       4265     
0016B2 0B              4266     betrieb835:     inc             R3
0016B3 EB              4267                             mov             A, R3
0016B4 B41009          4268                             cjne    A, #16d, betrieb835_1
0016B7 E54B            4269                             mov             A, 0x4B
0016B9 120000     F    4270                             call    TAB_HEX
0016BC F8              4271                             mov             R0, A
AX51 MACRO ASSEMBLER  MESSVERST_NEW                                                         01/07/24 00:14:01 PAGE    69

0016BD 020000     F    4272                             ljmp    DISPLAY
0016C0 00              4273     betrieb835_1:nop
0016C1 1100       F    4274                             call    TAB_2Z_7
0016C3 F8              4275                             mov             R0, A
0016C4 020000     F    4276                             ljmp    DISPLAY
                       4277     
0016C7 83              4278     TAB_2Z_7:       movc    A,@A+PC
0016C8 22              4279                             ret
0016C9 52              4280                             DB              52h
0016CA 65              4281                             DB              65h
0016CB 6D              4282                             DB              6Dh
0016CC 6F              4283                             DB              6Fh
0016CD 74              4284                             DB              74h
0016CE 65              4285                             DB              65h
0016CF 20              4286                             DB              20h
0016D0 52              4287                             DB              52h
0016D1 53              4288                             DB              53h
0016D2 34              4289                             DB              34h
0016D3 38              4290                             DB              38h
0016D4 35              4291                             DB              35h
0016D5 20              4292                             DB              20h
0016D6 49              4293                             DB              49h
0016D7 44              4294                             DB              44h
0016D8 2D              4295                             DB              2Dh
                       4296     
                       4297     
                       4298     
0016D9 20              4299                             DB              20h
0016DA 20              4300                             DB              20h
0016DB 20              4301                             DB              20h
0016DC 20              4302                             DB              20h
0016DD 22              4303                             RET
                       4304     
                       4305     
0016DE 0B              4306     betrieb836:     inc             R3
0016DF EB              4307                             mov             A, R3
0016E0 1100       F    4308                             call    TAB_2Z_8
0016E2 F8              4309                             mov             R0, A
0016E3 020000     F    4310                             ljmp    DISPLAY
                       4311     
0016E6 83              4312     TAB_2Z_8:       movc    A,@A+PC
0016E7 22              4313                             ret
0016E8 52              4314                             DB              52h
0016E9 53              4315                             DB              53h
0016EA 34              4316                             DB              34h
0016EB 38              4317                             DB              38h
0016EC 35              4318                             DB              35h
0016ED 20              4319                             DB              20h
0016EE 4F              4320                             DB              4Fh
0016EF 56              4321                             DB              56h
0016F0 45              4322                             DB              45h
0016F1 52              4323                             DB              52h
0016F2 52              4324                             DB              52h
0016F3 41              4325                             DB              41h
0016F4 4E              4326                             DB              4Eh
0016F5 47              4327                             DB              47h
0016F6 45              4328                             DB              45h
0016F7 21              4329                             DB              21h
                       4330     
                       4331     
0016F8 20              4332                             DB              20h
0016F9 20              4333                             DB              20h
0016FA 20              4334                             DB              20h
AX51 MACRO ASSEMBLER  MESSVERST_NEW                                                         01/07/24 00:14:01 PAGE    70

0016FB 20              4335                             DB              20h
0016FC 22              4336                             RET
                       4337     
                       4338     
0016FD 0B              4339     betrieb837:     inc             R3
0016FE EB              4340                             mov             A, R3
0016FF 1100       F    4341                             call    TAB_2Z_9
001701 F8              4342                             mov             R0, A
001702 020000     F    4343                             ljmp    DISPLAY
001705 83              4344     TAB_2Z_9:       movc    A,@A+PC
001706 22              4345                             ret
001707 52              4346                             DB              52h
001708 53              4347                             DB              53h
001709 34              4348                             DB              34h
00170A 38              4349                             DB              38h
00170B 35              4350                             DB              35h
00170C 20              4351                             DB              20h
00170D 4F              4352                             DB              4Fh
00170E 55              4353                             DB              55h
00170F 54              4354                             DB              54h
001710 50              4355                             DB              50h
001711 2E              4356                             DB              2Eh
001712 3E              4357                             DB              3Eh
001713 39              4358                             DB              39h
001714 2E              4359                             DB              2Eh
001715 35              4360                             DB              35h
001716 56              4361                             DB              56h
                       4362     
                       4363     
001717 20              4364                             DB              20h
001718 20              4365                             DB              20h
001719 20              4366                             DB              20h
00171A 20              4367                             DB              20h
00171B 22              4368                             RET
                       4369     
                       4370     
00171C 0B              4371     betrieb840:     inc             R3
00171D EB              4372                             mov             A, R3
00171E 1100       F    4373                             call    TAB_4Z_1
001720 F8              4374                             mov             R0, A
001721 020000     F    4375                             ljmp    DISPLAY
                       4376     
001724 83              4377     TAB_4Z_1:       movc    A,@A+PC
001725 22              4378                             ret
001726 20              4379                             DB              20h
001727 20              4380                             DB              20h
001728 20              4381                             DB              20h
001729 20              4382                             DB              20h
00172A 20              4383                             DB              20h
00172B 20              4384                             DB              20h
00172C 20              4385                             DB              20h
00172D 20              4386                             DB              20h
00172E 20              4387                             DB              20h
00172F 20              4388                             DB              20h
001730 20              4389                             DB              20h
001731 20              4390                             DB              20h
001732 20              4391                             DB              20h
001733 20              4392                             DB              20h
001734 20              4393                             DB              20h
001735 20              4394                             DB              20h
001736 22              4395                             RET
                       4396     
                       4397     
AX51 MACRO ASSEMBLER  MESSVERST_NEW                                                         01/07/24 00:14:01 PAGE    71

001737 0B              4398     betrieb850:     inc             R3
001738 EB              4399                             mov             A, R3
001739 1100       F    4400                             call    TAB_4Z_2
00173B F8              4401                             mov             R0, A
00173C 020000     F    4402                             ljmp    DISPLAY
                       4403     
00173F 83              4404     TAB_4Z_2:       movc    A,@A+PC
001740 22              4405                             ret
001741 20              4406                             DB              20h
001742 20              4407                             DB              20h
001743 50              4408                             DB              50h
001744 72              4409                             DB              72h
001745 65              4410                             DB              65h
001746 73              4411                             DB              73h
001747 73              4412                             DB              73h
001748 20              4413                             DB              20h
001749 74              4414                             DB              74h
00174A 6F              4415                             DB              6Fh
00174B 20              4416                             DB              20h
00174C 73              4417                             DB              73h
00174D 65              4418                             DB              65h
00174E 74              4419                             DB              74h
00174F 20              4420                             DB              20h
001750 20              4421                             DB              20h
001751 22              4422                             RET
                       4423     
                       4424     
                       4425     
                       4426     
                       4427     
                       4428     
                       4429     
                       4430     
001752 0B              4431     betrieb860:     inc             R3
001753 EB              4432                             mov             A, R3
001754 B4092B          4433                             cjne    A, #9d, betrieb863
001757 200005          4434                             jb              OUTPUT_NEGATIV, betrieb861
00175A 7820            4435                             mov             R0, #20h
00175C 020000     F    4436                             ljmp    DISPLAY
                       4437     
00175F E50A            4438     betrieb861:     mov             A, 0x0A
001761 B40019          4439                             cjne    A, #00h, betrieb862
001764 E50B            4440                             mov             A, 0x0B
001766 B40014          4441                             cjne    A, #00h, betrieb862
001769 E50C            4442                             mov             A, 0x0C
00176B B4000F          4443                             cjne    A, #00h, betrieb862
00176E E50D            4444                             mov             A, 0x0D
001770 B4000A          4445                             cjne    A, #00h, betrieb862
001773 E50E            4446                             mov             A, 0x0E
001775 B40005          4447                             cjne    A, #00h, betrieb862
001778 7820            4448                             mov             R0, #20h
00177A 020000     F    4449                             ljmp    DISPLAY
                       4450     
00177D 782D            4451     betrieb862:     mov             R0, #2Dh
00177F 020000     F    4452                             ljmp    DISPLAY
                       4453     
001782 B40A0D          4454     betrieb863:     cjne    A, #10d, betrieb864
001785 E50A            4455                             mov             A, 0x0A
001787 B40004          4456                             cjne    A, #00h, betrieb863_1
00178A 7420            4457                             mov             A, #20h
00178C 802A            4458                             jmp             betrieb869
00178E 1100       F    4459     betrieb863_1:call       TAB_DEZIMAL
001790 8026            4460                             jmp             betrieb869
AX51 MACRO ASSEMBLER  MESSVERST_NEW                                                         01/07/24 00:14:01 PAGE    72

001792 B40B06          4461     betrieb864:     cjne    A, #11d, betrieb865
001795 E50B            4462                             mov             A, 0x0B
001797 1100       F    4463                             call    TAB_DEZIMAL
001799 801D            4464                             jmp             betrieb869
00179B B40D06          4465     betrieb865:     cjne    A, #13d, betrieb866
00179E E50C            4466                             mov             A, 0x0C
0017A0 1100       F    4467                             call    TAB_DEZIMAL
0017A2 8014            4468                             jmp             betrieb869
0017A4 B40E06          4469     betrieb866:     cjne    A, #14d, betrieb867
0017A7 E50D            4470                             mov             A, 0x0D
0017A9 1100       F    4471                             call    TAB_DEZIMAL
0017AB 800B            4472                             jmp             betrieb869
0017AD B40F06          4473     betrieb867:     cjne    A, #15d, betrieb868
0017B0 E50E            4474                             mov             A, 0x0E
0017B2 1100       F    4475                             call    TAB_DEZIMAL
0017B4 8002            4476                             jmp             betrieb869
                       4477     
                       4478     
0017B6 1100       F    4479     betrieb868:     call    TAB_4Z_3
0017B8 F8              4480     betrieb869:     mov             R0, A
0017B9 020000     F    4481                             ljmp    DISPLAY
                       4482     
0017BC 83              4483     TAB_4Z_3:       movc    A,@A+PC
0017BD 22              4484                             ret
                       4485     
0017BE 4F              4486                             DB              4Fh
0017BF 55              4487                             DB              55h
0017C0 54              4488                             DB              54h
0017C1 50              4489                             DB              50h
0017C2 55              4490                             DB              55h
0017C3 54              4491                             DB              54h
0017C4 3A              4492                             DB              3Ah
0017C5 20              4493                             DB              20h
0017C6 20              4494                             DB              20h
0017C7 20              4495                             DB              20h
0017C8 20              4496                             DB              20h
0017C9 2E              4497                             DB              2Eh
0017CA 20              4498                             DB              20h
0017CB 20              4499                             DB              20h
0017CC 20              4500                             DB              20h
0017CD 56              4501                             DB              56h
                       4502     
0017CE 22              4503                             RET
                       4504     
0017CF 04              4505     TAB_DEZIMAL:inc         A
0017D0 83              4506                             movc    A,@A+PC
0017D1 22              4507                             ret
0017D2 30              4508                             DB              30h
0017D3 31              4509                             DB              31h
0017D4 32              4510                             DB              32h
0017D5 33              4511                             DB              33h
0017D6 34              4512                             DB              34h
0017D7 35              4513                             DB              35h
0017D8 36              4514                             DB              36h
0017D9 37              4515                             DB              37h
0017DA 38              4516                             DB              38h
0017DB 39              4517                             DB              39h
0017DC 22              4518                             ret
                       4519     
                       4520     
0017DD 0B              4521     GAIN500:        inc             R3
0017DE EB              4522                             mov             A, R3
0017DF 1100       F    4523                             call    TAB_GAIN500
AX51 MACRO ASSEMBLER  MESSVERST_NEW                                                         01/07/24 00:14:01 PAGE    73

0017E1 F8              4524                             mov             R0, A
0017E2 020000     F    4525                             ljmp    DISPLAY
0017E5 83              4526     TAB_GAIN500:movc        A,@A+PC
0017E6 22              4527                             ret
                       4528     
0017E7 20              4529                             DB              20h
0017E8 20              4530                             DB              20h
0017E9 47              4531                             DB              47h
0017EA 41              4532                             DB              41h
0017EB 49              4533                             DB              49h
0017EC 4E              4534                             DB              4Eh
0017ED 3A              4535                             DB              3Ah
0017EE 20              4536                             DB              20h
0017EF 20              4537                             DB              20h
0017F0 20              4538                             DB              20h
0017F1 35              4539                             DB              35h
0017F2 30              4540                             DB              30h
0017F3 30              4541                             DB              30h
0017F4 20              4542                             DB              20h
0017F5 20              4543                             DB              20h
0017F6 20              4544                             DB              20h
0017F7 20              4545                             DB              20h
0017F8 20              4546                             DB              20h
0017F9 20              4547                             DB              20h
0017FA 20              4548                             DB              20h
0017FB 22              4549                             RET
                       4550     
0017FC 0B              4551     GAIN1K:         inc             R3
0017FD EB              4552                             mov             A, R3
0017FE 1100       F    4553                             call    TAB_GAIN1K
001800 F8              4554                             mov             R0, A
001801 020000     F    4555                             ljmp    DISPLAY
001804 83              4556     TAB_GAIN1K:     movc    A,@A+PC
001805 22              4557                             ret
001806 20              4558                             DB              20h
001807 20              4559                             DB              20h
001808 47              4560                             DB              47h
001809 41              4561                             DB              41h
00180A 49              4562                             DB              49h
00180B 4E              4563                             DB              4Eh
00180C 3A              4564                             DB              3Ah
00180D 20              4565                             DB              20h
00180E 20              4566                             DB              20h
00180F 20              4567                             DB              20h
001810 31              4568                             DB              31h
001811 6B              4569                             DB              6Bh
001812 20              4570                             DB              20h
001813 20              4571                             DB              20h
001814 20              4572                             DB              20h
001815 20              4573                             DB              20h
001816 20              4574                             DB              20h
001817 20              4575                             DB              20h
001818 20              4576                             DB              20h
001819 20              4577                             DB              20h
00181A 22              4578                             RET
                       4579     
00181B 0B              4580     GAIN2K:         inc             R3
00181C EB              4581                             mov             A, R3
00181D 1100       F    4582                             call    TAB_GAIN2K
00181F F8              4583                             mov             R0, A
001820 020000     F    4584                             ljmp    DISPLAY
001823 83              4585     TAB_GAIN2K:     movc    A,@A+PC
001824 22              4586                             ret
AX51 MACRO ASSEMBLER  MESSVERST_NEW                                                         01/07/24 00:14:01 PAGE    74

001825 20              4587                             DB              20h
001826 20              4588                             DB              20h
001827 47              4589                             DB              47h
001828 41              4590                             DB              41h
001829 49              4591                             DB              49h
00182A 4E              4592                             DB              4Eh
00182B 3A              4593                             DB              3Ah
00182C 20              4594                             DB              20h
00182D 20              4595                             DB              20h
00182E 20              4596                             DB              20h
00182F 32              4597                             DB              32h
001830 2E              4598                             DB              2Eh
001831 35              4599                             DB              35h
001832 6B              4600                             DB              6Bh
001833 20              4601                             DB              20h
001834 20              4602                             DB              20h
001835 20              4603                             DB              20h
001836 20              4604                             DB              20h
001837 20              4605                             DB              20h
001838 20              4606                             DB              20h
001839 20              4607                             DB              20h
00183A 22              4608                             RET
                       4609     
                       4610     
00183B 0B              4611     GAIN5K:         inc             R3
00183C EB              4612                             mov             A, R3
00183D 1100       F    4613                             call    TAB_GAIN5K
00183F F8              4614                             mov             R0, A
001840 020000     F    4615                             ljmp    DISPLAY
001843 83              4616     TAB_GAIN5K:     movc    A,@A+PC
001844 22              4617                             ret
001845 20              4618                             DB              20h
001846 20              4619                             DB              20h
001847 47              4620                             DB              47h
001848 41              4621                             DB              41h
001849 49              4622                             DB              49h
00184A 4E              4623                             DB              4Eh
00184B 3A              4624                             DB              3Ah
00184C 20              4625                             DB              20h
00184D 20              4626                             DB              20h
00184E 20              4627                             DB              20h
00184F 35              4628                             DB              35h
001850 6B              4629                             DB              6Bh
001851 20              4630                             DB              20h
001852 20              4631                             DB              20h
001853 20              4632                             DB              20h
001854 20              4633                             DB              20h
001855 20              4634                             DB              20h
001856 20              4635                             DB              20h
001857 20              4636                             DB              20h
001858 20              4637                             DB              20h
001859 22              4638                             RET
                       4639     
00185A 0B              4640     GAIN10K:        inc             R3
00185B EB              4641                             mov             A, R3
00185C 1100       F    4642                             call    TAB_GAIN10K
00185E F8              4643                             mov             R0, A
00185F 020000     F    4644                             ljmp    DISPLAY
001862 83              4645     TAB_GAIN10K:movc        A,@A+PC
001863 22              4646                             ret
001864 20              4647                             DB              20h
001865 20              4648                             DB              20h
001866 47              4649                             DB              47h
AX51 MACRO ASSEMBLER  MESSVERST_NEW                                                         01/07/24 00:14:01 PAGE    75

001867 41              4650                             DB              41h
001868 49              4651                             DB              49h
001869 4E              4652                             DB              4Eh
00186A 3A              4653                             DB              3Ah
00186B 20              4654                             DB              20h
00186C 20              4655                             DB              20h
00186D 20              4656                             DB              20h
00186E 31              4657                             DB              31h
00186F 30              4658                             DB              30h
001870 6B              4659                             DB              6Bh
001871 20              4660                             DB              20h
001872 20              4661                             DB              20h
001873 20              4662                             DB              20h
001874 20              4663                             DB              20h
001875 20              4664                             DB              20h
001876 20              4665                             DB              20h
001877 20              4666                             DB              20h
001878 22              4667                             RET
                       4668     
001879 0B              4669     GAIN25K:        inc             R3
00187A EB              4670                             mov             A, R3
00187B 1100       F    4671                             call    TAB_GAIN25K
00187D F8              4672                             mov             R0, A
00187E 020000     F    4673                             ljmp    DISPLAY
001881 83              4674     TAB_GAIN25K:movc        A,@A+PC
001882 22              4675                             ret
001883 20              4676                             DB              20h
001884 20              4677                             DB              20h
001885 47              4678                             DB              47h
001886 41              4679                             DB              41h
001887 49              4680                             DB              49h
001888 4E              4681                             DB              4Eh
001889 3A              4682                             DB              3Ah
00188A 20              4683                             DB              20h
00188B 20              4684                             DB              20h
00188C 20              4685                             DB              20h
00188D 32              4686                             DB              32h
00188E 35              4687                             DB              35h
00188F 6B              4688                             DB              6Bh
001890 20              4689                             DB              20h
001891 20              4690                             DB              20h
001892 20              4691                             DB              20h
001893 20              4692                             DB              20h
001894 20              4693                             DB              20h
001895 20              4694                             DB              20h
001896 20              4695                             DB              20h
001897 22              4696                             RET
                       4697     
001898 0B              4698     GAIN50K:        inc             R3
001899 EB              4699                             mov             A, R3
00189A 1100       F    4700                             call    TAB_GAIN50K
00189C F8              4701                             mov             R0, A
00189D 020000     F    4702                             ljmp    DISPLAY
0018A0 83              4703     TAB_GAIN50K:movc        A,@A+PC
0018A1 22              4704                             ret
0018A2 20              4705                             DB              20h
0018A3 20              4706                             DB              20h
0018A4 47              4707                             DB              47h
0018A5 41              4708                             DB              41h
0018A6 49              4709                             DB              49h
0018A7 4E              4710                             DB              4Eh
0018A8 3A              4711                             DB              3Ah
0018A9 20              4712                             DB              20h
AX51 MACRO ASSEMBLER  MESSVERST_NEW                                                         01/07/24 00:14:01 PAGE    76

0018AA 20              4713                             DB              20h
0018AB 20              4714                             DB              20h
0018AC 35              4715                             DB              35h
0018AD 30              4716                             DB              30h
0018AE 6B              4717                             DB              6Bh
0018AF 20              4718                             DB              20h
0018B0 20              4719                             DB              20h
0018B1 20              4720                             DB              20h
0018B2 20              4721                             DB              20h
0018B3 20              4722                             DB              20h
0018B4 20              4723                             DB              20h
0018B5 20              4724                             DB              20h
0018B6 22              4725                             RET
                       4726     
0018B7 0B              4727     GAIN60K:        inc             R3
0018B8 EB              4728                             mov             A, R3
0018B9 1100       F    4729                             call    TAB_GAIN60K
0018BB F8              4730                             mov             R0, A
0018BC 020000     F    4731                             ljmp    DISPLAY
0018BF 83              4732     TAB_GAIN60K:movc        A,@A+PC
0018C0 22              4733                             ret
0018C1 20              4734                             DB              20h
0018C2 20              4735                             DB              20h
0018C3 47              4736                             DB              47h
0018C4 41              4737                             DB              41h
0018C5 49              4738                             DB              49h
0018C6 4E              4739                             DB              4Eh
0018C7 3A              4740                             DB              3Ah
0018C8 20              4741                             DB              20h
0018C9 20              4742                             DB              20h
0018CA 20              4743                             DB              20h
0018CB 36              4744                             DB              36h
0018CC 30              4745                             DB              30h
0018CD 6B              4746                             DB              6Bh
0018CE 20              4747                             DB              20h
0018CF 20              4748                             DB              20h
0018D0 20              4749                             DB              20h
0018D1 20              4750                             DB              20h
0018D2 20              4751                             DB              20h
0018D3 20              4752                             DB              20h
0018D4 20              4753                             DB              20h
0018D5 22              4754                             RET
                       4755     
                       4756     
                       4757     
                       4758     
0018D6 BC0002          4759     set_Gain_1:     cjne    R4, #0d, set_Gain_2
0018D9 8024            4760                             jmp             set_Gain500
0018DB BC0102          4761     set_Gain_2:     cjne    R4, #1d, set_Gain_3
0018DE 803B            4762                             jmp             set_Gain1K
0018E0 BC0202          4763     set_Gain_3:     cjne    R4, #2d, set_Gain_4
0018E3 8050            4764                             jmp             set_Gain2K
0018E5 BC0302          4765     set_Gain_4:     cjne    R4, #3d, set_Gain_5
0018E8 8065            4766                             jmp             set_Gain5K
0018EA BC0402          4767     set_Gain_5:     cjne    R4, #4d, set_Gain_6
0018ED 807A            4768                             jmp             set_Gain10K
0018EF BC0502          4769     set_Gain_6:     cjne    R4, #5d, set_Gain_7
0018F2 0100       F    4770                             jmp             set_Gain25K
0018F4 BC0602          4771     set_Gain_7:     cjne    R4, #6d, set_Gain_8
0018F7 0100       F    4772                             jmp             set_Gain50K
0018F9 BC0700          4773     set_Gain_8:     cjne    R4, #7d, set_Gain_9
                       4774                             ;jmp            set_Gain60K
0018FC 020000     F    4775     set_Gain_9:     ljmp    Gain_ende
AX51 MACRO ASSEMBLER  MESSVERST_NEW                                                         01/07/24 00:14:01 PAGE    77

                       4776     
0018FF C291            4777     set_Gain500: clr    CS_PDA
001901 7400            4778                  MOV    A, #0x00
001903 F5A3            4779                  MOV    SPI0DAT, A
                       4780     
001905 20FFFD          4781                  JB     SPI0CN0_SPIF, $
001908 C2FF            4782                  CLR    SPI0CN0_SPIF
00190A 7400            4783                  MOV    A, #0x00
00190C F5A3            4784                  MOV    SPI0DAT, A
00190E 20FFFD          4785                  JB     SPI0CN0_SPIF, $
001911 C2FF            4786                  CLR    SPI0CN0_SPIF
001913 D291            4787                  setb   CS_PDA
001915 751F00          4788                             mov             0x1F, #0d
001918 020000     F    4789                             ljmp    Gain_ende
                       4790     
00191B C291            4791     set_Gain1K:      clr    CS_PDA
                       4792     
00191D 75A300          4793                  MOV    SPI0DAT,#0d
                       4794     
001920 20FFFD          4795                  JB     SPI0CN0_SPIF, $
001923 C2FF            4796                  CLR    SPI0CN0_SPIF
                       4797     
001925 75A301          4798                  MOV    SPI0DAT,#0x01
001928 20FFFD          4799                  JB     SPI0CN0_SPIF, $
00192B C2FF            4800                  CLR    SPI0CN0_SPIF
00192D D291            4801                  setb   CS_PDA
00192F 751F01          4802                             mov             0x1F, #1d
001932 020000     F    4803                             ljmp    Gain_ende
                       4804     
                       4805     
001935 C291            4806     set_Gain2K:clr    CS_PDA
                       4807     
001937 75A300          4808                  MOV    SPI0DAT,#0d
                       4809     
00193A 20FFFD          4810                  JB     SPI0CN0_SPIF, $
00193D C2FF            4811                  CLR    SPI0CN0_SPIF
                       4812     
00193F 75A302          4813                  MOV    SPI0DAT, #0x02
001942 20FFFD          4814                  JB     SPI0CN0_SPIF, $
001945 C2FF            4815                  CLR    SPI0CN0_SPIF
001947 D291            4816                  setb   CS_PDA
001949 751F02          4817                              mov    0x1F, #2d
00194C 020000     F    4818                             ljmp    Gain_ende
                       4819     
00194F C291            4820     set_Gain5K:      clr    CS_PDA
001951 75A300          4821                  MOV    SPI0DAT,#0x00
                       4822     
001954 20FFFD          4823                  JB     SPI0CN0_SPIF, $
001957 C2FF            4824                  CLR    SPI0CN0_SPIF
001959 75A303          4825                  MOV    SPI0DAT,#0x03
00195C 20FFFD          4826                  JB     SPI0CN0_SPIF, $
00195F C2FF            4827                  CLR    SPI0CN0_SPIF
001961 D291            4828                  setb   CS_PDA
001963 751F03          4829                              mov    0x1F, #3d
001966 020000     F    4830                              ljmp   Gain_ende
                       4831     
001969 C291            4832     set_Gain10K: clr    CS_PDA
                       4833     
00196B 75A300          4834                  MOV    SPI0DAT,#0d
                       4835     
00196E 20FFFD          4836                  JB     SPI0CN0_SPIF, $
001971 C2FF            4837                  CLR    SPI0CN0_SPIF
                       4838     
AX51 MACRO ASSEMBLER  MESSVERST_NEW                                                         01/07/24 00:14:01 PAGE    78

001973 75A304          4839                  MOV    SPI0DAT,#0x04
001976 20FFFD          4840                  JB     SPI0CN0_SPIF, $
001979 C2FF            4841                  CLR    SPI0CN0_SPIF
00197B D291            4842                  setb   CS_PDA
00197D 751F04          4843                             mov             0x1F, #4d
001980 020000     F    4844                             ljmp    Gain_ende
                       4845     
001983 C291            4846     set_Gain25K: clr    CS_PDA
                       4847     
001985 75A300          4848                  MOV    SPI0DAT,#0d
                       4849     
001988 20FFFD          4850                  JB     SPI0CN0_SPIF, $
00198B C2FF            4851                  CLR    SPI0CN0_SPIF
00198D 75A305          4852                  MOV    SPI0DAT,#0x05
001990 20FFFD          4853                  JB     SPI0CN0_SPIF, $
001993 C2FF            4854                  CLR    SPI0CN0_SPIF
001995 D291            4855                  setb   CS_PDA
001997 751F05          4856                             mov             0x1F, #5d
00199A 020000     F    4857                             ljmp    Gain_ende
                       4858     
00199D C291            4859     set_Gain50K: clr    CS_PDA
                       4860     
00199F 75A300          4861                  MOV    SPI0DAT,#0x00
0019A2 20FFFD          4862                  JB     SPI0CN0_SPIF, $
0019A5 C2FF            4863                  CLR    SPI0CN0_SPIF
0019A7 75A306          4864                  MOV    SPI0DAT,#0x06
0019AA 20FFFD          4865                  JB     SPI0CN0_SPIF, $
0019AD C2FF            4866                  CLR    SPI0CN0_SPIF
0019AF D291            4867                  setb   CS_PDA
0019B1 751F06          4868                              mov    0x1F, #6d
0019B4 020000     F    4869                              ljmp   Gain_ende
                       4870     
                       4871     
0019B7 C2B2            4872     Gain_ende:      clr             OVERLOAD
0019B9 C200       F    4873                             clr     BIT_OVERRANGE
0019BB C200       F    4874                             clr             BIT_OVERVOLT
0019BD 7FFF            4875                             mov             R7, #0FFh
0019BF 308DFD          4876     Gain_ende_1:jnb         TCON_TF0, $
0019C2 C28D            4877                             clr             TCON_TF0
0019C4 DFF9            4878                             djnz    R7, Gain_ende_1
0019C6 C200       F    4879                             clr             SET_GAIN
0019C8 75FE08          4880                             mov             P0MASK, #08h
0019CB 020000     F    4881                             ljmp    main
                       4882     
                       4883     
0019CE 756D00          4884     Zero:           mov             0x6D, #0d
                       4885     
                       4886     
                       4887     
0019D1 75E68A          4888                             mov             EIE1, #8Ah
0019D4 75DF5F          4889                             mov             ADC0CF2, #5Fh
0019D7 780F            4890                             mov             R0, #0Fh
                       4891     
0019D9 D200       F    4892                             setb    BIT_AUTOZ
0019DB 75BB00          4893                             mov             ADC0MX, #00h
0019DE D2EC            4894                             setb    ADC0CN0_ADBUSY
0019E0 3000FD          4895                             jnb             ADC_warten, $
0019E3 C200       F    4896                             clr             ADC_warten
0019E5 758C99          4897                             mov             TH0, #99h
0019E8 758A00          4898                             mov             TL0, #00h
0019EB C28D            4899                             clr             TCON_TF0
0019ED 308DFD          4900                             jnb             TCON_TF0, $
0019F0 A9BE            4901                             mov             R1, ADC0H
AX51 MACRO ASSEMBLER  MESSVERST_NEW                                                         01/07/24 00:14:01 PAGE    79

0019F2 AABD            4902                             mov             R2, ADC0L
                       4903     
                       4904     
                       4905     
0019F4 B90005          4906                             cjne    R1, #00h, Zero_P1
0019F7 BA0002          4907                             cjne    R2, #00h, Zero_P1
0019FA 806A            4908                             jmp             Zero_N1
                       4909     
                       4910     
                       4911     
0019FC 75BB00          4912     Zero_P1:        mov             ADC0MX, #00h
0019FF D2EC            4913                             setb    ADC0CN0_ADBUSY
001A01 3000FD          4914                             jnb             ADC_warten, $
001A04 C200       F    4915                             clr             ADC_warten
001A06 758C99          4916                             mov             TH0, #99h
001A09 758A00          4917                             mov             TL0, #00h
001A0C C28D            4918                             clr             TCON_TF0
001A0E 308DFD          4919                             jnb             TCON_TF0, $
001A11 A9BE            4920                             mov             R1, ADC0H
001A13 AABD            4921                             mov             R2, ADC0L
001A15 B90005          4922                             cjne    R1, #00h, Zero_P2
001A18 BA0002          4923                             cjne    R2, #00h, Zero_P2
001A1B 0100       F    4924                             jmp             Zero_slow
                       4925     
001A1D D200       F    4926     Zero_P2:        setb    Auto_zero_on
001A1F D200       F    4927                             setb    ADC_Pos
001A21 75A730          4928                             mov             SFRPAGE, #30h
001A24 A985            4929                             mov             R1, DAC0H
001A26 AA84            4930                             mov             R2, DAC0L
001A28 75A700          4931                             mov             SFRPAGE, #00h
001A2B BAFF11          4932                             cjne    R2, #0FFh, Zero_P3
001A2E C3              4933                             clr             C
001A2F B90F00          4934                             cjne    R1, #0Fh, Zero_P200
001A32 4004            4935     Zero_P200:      jc              Zero_P20
001A34 D200       F    4936                             setb    DAC0_max
001A36 8018            4937                             jmp             Zero_P5
001A38 C200       F    4938     Zero_P20:       clr             DAC0_max
001A3A 09              4939                             inc             R1
001A3B 7A00            4940                             mov             R2, #00h
001A3D 8003            4941                             jmp             Zero_P4
001A3F C200       F    4942     Zero_P3:        clr             DAC0_max
001A41 0A              4943                             inc             R2
001A42 75A730          4944     Zero_P4:        mov             SFRPAGE, #30h
001A45 8A84            4945                             mov             DAC0L, R2
001A47 EA              4946                             mov             A, R2
001A48 FE              4947                             mov             R6, A
001A49 8985            4948                             mov             DAC0H, R1
001A4B E9              4949                             mov             A, R1
001A4C FD              4950                             mov             R5, A
001A4D 75A700          4951                             mov             SFRPAGE, #00h
                       4952     
001A50 7F20            4953     Zero_P5:        mov             R7, #20h
                       4954     
001A52 308DFD          4955     Zero_P6:        jnb             TCON_TF0, $
001A55 C28D            4956                             clr             TCON_TF0
001A57 DFF9            4957                             djnz    R7, Zero_P6
001A59 300008          4958                             jnb             DAC0_max, Zero_P8
001A5C D200       F    4959                             setb    BIT_OVERRANGE
001A5E D200       F    4960                             setb    GAIN_SET
001A60 790F            4961                             mov             R1, #0Fh
001A62 0100       F    4962                             jmp             Zero_ende
001A64 8096            4963     Zero_P8:        jmp             Zero_P1
                       4964     
AX51 MACRO ASSEMBLER  MESSVERST_NEW                                                         01/07/24 00:14:01 PAGE    80

                       4965     
                       4966     
                       4967     
001A66 75BB00          4968     Zero_N1:        mov             ADC0MX, #00h
001A69 D2EC            4969                             setb    ADC0CN0_ADBUSY
001A6B 3000FD          4970                             jnb             ADC_warten, $
001A6E C200       F    4971                             clr             ADC_warten
001A70 758C99          4972                             mov             TH0, #99h
001A73 758A00          4973                             mov             TL0, #00h
001A76 C28D            4974                             clr             TCON_TF0
001A78 308DFD          4975                             jnb             TCON_TF0, $
001A7B A9BE            4976                             mov             R1, ADC0H
001A7D AABD            4977                             mov             R2, ADC0L
001A7F C3              4978                             clr             C
001A80 BA0500          4979                             cjne    R2, #05h, Zero_N1_1
001A83 5049            4980     Zero_N1_1:      jnc             Zero_slow
                       4981     
001A85 D200       F    4982     Zero_N2:        setb    Auto_zero_on
001A87 D200       F    4983                             setb    ADC_Neg
001A89 75A730          4984                             mov             SFRPAGE, #30h
001A8C A985            4985                             mov             R1, DAC0H
001A8E AA84            4986                             mov             R2, DAC0L
001A90 75A700          4987                             mov             SFRPAGE, #00h
001A93 BA0011          4988                             cjne    R2, #00h, Zero_N3
001A96 C3              4989                             clr             C
001A97 B90000          4990                             cjne    R1, #00h, Zero_N200
001A9A 5004            4991     Zero_N200:      jnc             Zero_N20
001A9C D200       F    4992                             setb    DAC0_min
001A9E 8018            4993                             jmp             Zero_N5
001AA0 C200       F    4994     Zero_N20:       clr             DAC0_min
001AA2 19              4995                             dec             R1
001AA3 7AFF            4996                             mov             R2, #0FFh
001AA5 8003            4997                             jmp             Zero_N4
001AA7 C200       F    4998     Zero_N3:        clr             DAC0_min
001AA9 1A              4999                             dec             R2
001AAA 75A730          5000     Zero_N4:        mov             SFRPAGE, #30h
001AAD 8A84            5001                             mov             DAC0L, R2
001AAF EA              5002                             mov             A, R2
001AB0 FE              5003                             mov             R6, A
001AB1 8985            5004                             mov             DAC0H, R1
001AB3 E9              5005                             mov             A, R1
001AB4 FD              5006                             mov             R5, A
001AB5 75A700          5007                             mov             SFRPAGE, #00h
                       5008     
001AB8 7F20            5009     Zero_N5:        mov             R7, #20h
                       5010     
001ABA 308DFD          5011     Zero_N6:        jnb             TCON_TF0, $
001ABD C28D            5012                             clr             TCON_TF0
001ABF DFF9            5013                             djnz    R7, Zero_N6
001AC1 300008          5014                             jnb             DAC0_min, Zero_N8
001AC4 D200       F    5015                             setb    BIT_OVERRANGE
001AC6 D200       F    5016                             setb    GAIN_SET
001AC8 790F            5017                             mov             R1, #0Fh
001ACA 0100       F    5018                             jmp             Zero_ende
001ACC 8098            5019     Zero_N8:        jmp             Zero_N1
                       5020     
                       5021     
                       5022     
                       5023     
001ACE D2EC            5024     Zero_slow:      setb    ADC0CN0_ADBUSY
001AD0 7F88            5025                             mov             R7, #88h
001AD2 3000FD          5026                             jnb             ADC_warten, $
001AD5 C200       F    5027                             clr             ADC_warten
AX51 MACRO ASSEMBLER  MESSVERST_NEW                                                         01/07/24 00:14:01 PAGE    81

001AD7 758CFF          5028     Zero_slow0:     mov             TH0, #0FFh
001ADA 758A00          5029                             mov             TL0, #00h
001ADD C28D            5030                             clr             TCON_TF0
001ADF 308DFD          5031                             jnb             TCON_TF0, $
001AE2 C28D            5032                             clr             TCON_TF0
001AE4 DFF1            5033                             djnz    R7, Zero_slow0
001AE6 A9BE            5034                             mov             R1, ADC0H
001AE8 AABD            5035                             mov             R2, ADC0L
001AEA E56D            5036                             mov             A, 0x6D
                       5037     
001AEC B40008          5038     Zero_slow1:     cjne    A, #00d, Zero_slow2
                       5039     
001AEF 896E            5040                             mov             0x6E, R1
001AF1 8A6F            5041                             mov             0x6F, R2
001AF3 056D            5042                             inc             0x6D
001AF5 802A            5043                             jmp             Zero_slow10
                       5044     
001AF7 B40108          5045     Zero_slow2:     cjne    A, #01d, Zero_slow3
                       5046     
001AFA 8970            5047                             mov             0x70, R1
001AFC 8A71            5048                             mov             0x71, R2
001AFE 056D            5049                             inc             0x6D
001B00 801F            5050                             jmp             Zero_slow10
                       5051     
001B02 B40208          5052     Zero_slow3:     cjne    A, #02d, Zero_slow4
                       5053     
001B05 8972            5054                             mov             0x72, R1
001B07 8A73            5055                             mov             0x73, R2
001B09 056D            5056                             inc             0x6D
001B0B 8014            5057                             jmp             Zero_slow10
                       5058     
001B0D B40308          5059     Zero_slow4:     cjne    A, #03d, Zero_slow5
                       5060     
001B10 8974            5061                             mov             0x74, R1
001B12 8A75            5062                             mov             0x75, R2
001B14 056D            5063                             inc             0x6D
001B16 8009            5064                             jmp             Zero_slow10
                       5065     
001B18 756D04          5066     Zero_slow5:     mov             0x6D, #4d
001B1B 8976            5067                             mov             0x76, R1
001B1D 8A77            5068                             mov             0x77, R2
001B1F 8000            5069                             jmp             Zero_slow10
                       5070     
001B21 757800          5071     Zero_slow10:mov         0x78, #00h
001B24 757900          5072                             mov             0x79, #00h
001B27 757A00          5073                             mov             0x7A, #00h
                       5074     
                       5075     
001B2A E56F            5076                 MOV A,0x6F
001B2C 2571            5077                 ADD A,0x71
001B2E F57A            5078                 MOV 0x7A,A
                       5079     
001B30 E56E            5080                 MOV A,0x6E
001B32 3570            5081                 ADDC A,0x70
001B34 F579            5082                 MOV 0x79,A
                       5083     
001B36 7400            5084                 MOV A,#00h
001B38 3400            5085                 ADDC A,#00h
001B3A F578            5086                 MOV 0x78,A
                       5087     
                       5088     
001B3C E57A            5089                 MOV A,0x7A
001B3E 2573            5090                 ADD A,0x73
AX51 MACRO ASSEMBLER  MESSVERST_NEW                                                         01/07/24 00:14:01 PAGE    82

001B40 F57A            5091                 MOV 0x7A,A
                       5092     
001B42 E579            5093                 MOV A,0x79
001B44 3572            5094                 ADDC A,0x72
001B46 F579            5095                 MOV 0x79,A
                       5096     
001B48 7400            5097                 MOV A,#00h
001B4A 3578            5098                 ADDC A, 0x78
001B4C F578            5099                 MOV 0x78,A
                       5100     
                       5101     
001B4E E57A            5102                 MOV A,0x7A
001B50 2575            5103                 ADD A,0x75
001B52 F57A            5104                 MOV 0x7A,A
                       5105     
001B54 E579            5106                 MOV A,0x79
001B56 3574            5107                 ADDC A,0x74
001B58 F579            5108                 MOV 0x79,A
                       5109     
001B5A 7400            5110                 MOV A,#00h
001B5C 3578            5111                 ADDC A, 0x78
001B5E F578            5112                 MOV 0x78,A
                       5113     
                       5114     
001B60 E57A            5115                 MOV A,0x7A
001B62 2577            5116                 ADD A,0x77
001B64 F57A            5117                 MOV 0x7A,A
                       5118     
001B66 E579            5119                 MOV A,0x79
001B68 3576            5120                 ADDC A,0x76
001B6A F579            5121                 MOV 0x79,A
                       5122     
001B6C 7400            5123                 MOV A,#00h
001B6E 3578            5124                 ADDC A, 0x78
001B70 F578            5125                 MOV 0x78,A
                       5126     
                       5127     
001B72 E578            5128                     mov             A, 0x78
001B74 E579            5129                             mov             A, 0x79
001B76 E57A            5130                             mov             A, 0x7A
                       5131     
001B78 7900            5132                             mov             R1, #00h
001B7A 7A00            5133                             mov             R2, #00h
                       5134     
001B7C 756C05          5135                             mov             0x6C, #5d
                       5136     
001B7F E57A            5137     Zero_slow12:mov         A, 0x7A
001B81 B4000C          5138                             cjne    A, #00h, Zero_slow13
001B84 E579            5139                             mov             A, 0x79
001B86 B4000B          5140                             cjne    A, #00h, Zero_slow14
001B89 E578            5141                             mov             A, 0x78
001B8B B4000D          5142                             cjne    A, #00h, Zero_slow15
001B8E 8027            5143                             jmp             Zero_slow18
                       5144     
001B90 157A            5145     Zero_slow13:dec         0x7A
001B92 8011            5146                             jmp             Zero_slow16
                       5147     
001B94 1579            5148     Zero_slow14:dec         0x79
001B96 757AFF          5149                             mov             0x7A, #0FFh
001B99 800A            5150                             jmp             Zero_slow16
                       5151     
001B9B 1578            5152     Zero_slow15:dec         0x78
001B9D 7579FF          5153                             mov             0x79, #0FFh
AX51 MACRO ASSEMBLER  MESSVERST_NEW                                                         01/07/24 00:14:01 PAGE    83

001BA0 757AFF          5154                             mov             0x7A, #0FFh
001BA3 8000            5155                             jmp             Zero_slow16
                       5156     
001BA5 D56CD7          5157     Zero_slow16:djnz        0x6C, Zero_slow12
001BA8 756C05          5158                             mov             0x6C, #5d
001BAB EA              5159                             mov             A, R2
001BAC B4FF05          5160                             cjne    A, #0FFh, Zero_slow17
001BAF 09              5161                             inc             R1
001BB0 7A00            5162                             mov             R2, #00h
001BB2 80CB            5163                             jmp             Zero_slow12
001BB4 0A              5164     Zero_slow17:inc         R2
001BB5 80C8            5165                             jmp             Zero_slow12
                       5166     
001BB7 E56D            5167     Zero_slow18:mov         A, 0x6D
001BB9 B40405          5168                             cjne    A, #4d, Zero_slow19
001BBC 756D00          5169                             mov             0x6D, #0d
001BBF 8003            5170                             jmp             Zero_slow20
001BC1 020000     F    5171     Zero_slow19:ljmp        Zero_slow
                       5172     
                       5173     
001BC4 20003C          5174     Zero_slow20:jb          Mittelwert_high, Zero_slow31
001BC7 C3              5175                             clr             C
001BC8 BA0F00          5176                             cjne    R2, #15d, Zero_slow21
001BCB 4002            5177     Zero_slow21:jc          Zero_slow22
001BCD 8032            5178                             jmp             Zero_slow30
001BCF 75A730          5179     Zero_slow22:mov         SFRPAGE, #30h
001BD2 A985            5180                             mov             R1, DAC0H
001BD4 AA84            5181                             mov             R2, DAC0L
001BD6 75A700          5182                             mov             SFRPAGE, #00h
001BD9 BA0011          5183                             cjne    R2, #00h, Zero_slow25
001BDC C3              5184                             clr             C
001BDD B90000          5185                             cjne    R1, #00h, Zero_slow23
001BE0 5004            5186     Zero_slow23:jnc         Zero_slow24
001BE2 D200       F    5187                             setb    DAC0_min
001BE4 8055            5188                             jmp             Zero_ende
001BE6 C200       F    5189     Zero_slow24:clr         DAC0_min
001BE8 19              5190                             dec             R1
001BE9 7AFF            5191                             mov             R2, #0FFh
001BEB 8003            5192                             jmp             Zero_slow26
001BED C200       F    5193     Zero_slow25:clr         DAC0_min
001BEF 1A              5194                             dec             R2
001BF0 75A730          5195     Zero_slow26:mov         SFRPAGE, #30h
001BF3 8A84            5196                             mov             DAC0L, R2
001BF5 EA              5197                             mov             A, R2
001BF6 FE              5198                             mov             R6, A
001BF7 8985            5199                             mov             DAC0H, R1
001BF9 E9              5200                             mov             A, R1
001BFA FD              5201                             mov             R5, A
001BFB 75A700          5202                             mov             SFRPAGE, #00h
001BFE 020000     F    5203                             ljmp    Zero_slow
                       5204     
001C01 D200       F    5205     Zero_slow30:setb        Mittelwert_high
                       5206     
001C03 C3              5207     Zero_slow31:clr         C
001C04 BA0100          5208                             cjne    R2, #1d, Zero_slow32
001C07 4032            5209     Zero_slow32:jc          Zero_ende
001C09 75A730          5210     Zero_slow33:mov         SFRPAGE, #30h
001C0C A985            5211                             mov             R1, DAC0H
001C0E AA84            5212                             mov             R2, DAC0L
001C10 75A700          5213                             mov             SFRPAGE, #00h
001C13 BAFF11          5214                             cjne    R2, #0FFh, Zero_slow36
001C16 C3              5215                             clr             C
001C17 B90F00          5216                             cjne    R1, #0Fh, Zero_slow34
AX51 MACRO ASSEMBLER  MESSVERST_NEW                                                         01/07/24 00:14:01 PAGE    84

001C1A 4004            5217     Zero_slow34:jc          Zero_slow35
001C1C D200       F    5218                             setb    DAC0_min
001C1E 801B            5219                             jmp             Zero_ende
001C20 C200       F    5220     Zero_slow35:clr         DAC0_min
001C22 09              5221                             inc             R1
001C23 7A00            5222                             mov             R2, #00h
001C25 8003            5223                             jmp             Zero_slow37
001C27 C200       F    5224     Zero_slow36:clr         DAC0_min
001C29 0A              5225                             inc             R2
001C2A 75A730          5226     Zero_slow37:mov         SFRPAGE, #30h
001C2D 8A84            5227                             mov             DAC0L, R2
001C2F EA              5228                             mov             A, R2
001C30 FE              5229                             mov             R6, A
001C31 8985            5230                             mov             DAC0H, R1
001C33 E9              5231                             mov             A, R1
001C34 FD              5232                             mov             R5, A
001C35 75A700          5233                             mov             SFRPAGE, #00h
001C38 020000     F    5234                             ljmp    Zero_slow
                       5235     
001C3B C200       F    5236     Zero_ende:      clr             Mittelwert_high
001C3D C200       F    5237                             clr             Auto_zero_on
001C3F 75EE70          5238                             mov             P1MASK, #70h
001C42 C200       F    5239                             clr             ADC_Pos
001C44 C200       F    5240                             clr             ADC_Neg
001C46 C200       F    5241                             clr             DAC0_min
001C48 C200       F    5242                             clr             DAC0_max
001C4A C200       F    5243                             clr             BIT_AUTOZ
001C4C C200       F    5244                             clr             SET_AUTOZERO
001C4E 7FF2            5245                             mov             R7, #0F2h
001C50 208D02          5246     Zero_ende3:     jb              TCON_TF0, Zero_ende4
001C53 80FB            5247                             jmp             Zero_ende3
001C55 C28D            5248     Zero_ende4:     clr             TCON_TF0
001C57 DFF7            5249                             djnz    R7, Zero_ende3
                       5250     
001C59 C2EB            5251                             clr             ADC0CN0_ADWINT
001C5B C200       F    5252                             clr             BIT_OVERRANGE
001C5D C200       F    5253                             clr             BIT_OVERVOLT
001C5F 75BE00          5254                             mov             ADC0H, #00h
001C62 75BD00          5255                             mov             ADC0L, #00h
001C65 C200       F    5256                             clr             ADC_WC_SET
                       5257     
001C67 7A00            5258                             mov             R2, #00d
001C69 D200       F    5259                             setb    display_clr
001C6B C200       F    5260                             clr             erste_zeile
001C6D C200       F    5261                             clr             zweite_zeile
001C6F C200       F    5262                             clr             dritte_zeile
001C71 C2A4            5263                             clr             LED_GREEN
001C73 C2A5            5264                             clr             LED_RED
001C75 D2A6            5265                             setb    LED_WHITE
001C77 D200       F    5266                             setb    GAIN_SET
                       5267     
                       5268     
001C79                 5269     Zero_ende5:
                       5270     
001C79 90F200          5271                             MOV     DPTR,#0F200h
001C7C E4              5272                             clr             A
001C7D 93              5273                             MOVC    A, @A+DPTR
                       5274     
                       5275     
001C7E B40120          5276                             cjne    A, #1d, Zero_ende6
001C81 EE              5277                             mov             A, R6
001C82 8533F0          5278                             mov             B, 0x33
001C85 95F0            5279                             subb    A, B
AX51 MACRO ASSEMBLER  MESSVERST_NEW                                                         01/07/24 00:14:01 PAGE    85

001C87 FE              5280                             mov             R6, A
001C88 ED              5281                             mov             A, R5
001C89 8532F0          5282                             mov             B, 0x32
001C8C 95F0            5283                             subb    A, B
001C8E FD              5284                             mov             R5, A
001C8F C3              5285                             clr             C
001C90 EE              5286                             mov             A, R6
001C91 8553F0          5287                             mov             B, 0x53
001C94 25F0            5288                             add             A, B
001C96 FE              5289                             mov             R6, A
001C97 ED              5290                             mov             A, R5
001C98 8552F0          5291                             mov             B, 0x52
001C9B 35F0            5292                             addc    A, B
001C9D FD              5293                             mov             R5, A
001C9E 020000     F    5294                             ljmp    Zero_ende20
                       5295     
001CA1 B40220          5296     Zero_ende6:     cjne    A, #2d, Zero_ende7
001CA4 EE              5297                             mov             A, R6
001CA5 8535F0          5298                             mov             B, 0x35
001CA8 95F0            5299                             subb    A, B
001CAA FE              5300                             mov             R6, A
001CAB ED              5301                             mov             A, R5
001CAC 8534F0          5302                             mov             B, 0x34
001CAF 95F0            5303                             subb    A, B
001CB1 FD              5304                             mov             R5, A
001CB2 C3              5305                             clr             C
001CB3 EE              5306                             mov             A, R6
001CB4 8555F0          5307                             mov             B, 0x55
001CB7 25F0            5308                             add             A, B
001CB9 FE              5309                             mov             R6, A
001CBA ED              5310                             mov             A, R5
001CBB 8554F0          5311                             mov             B, 0x54
001CBE 35F0            5312                             addc    A, B
001CC0 FD              5313                             mov             R5, A
001CC1 020000     F    5314                             ljmp    Zero_ende20
                       5315     
001CC4 B40320          5316     Zero_ende7:     cjne    A, #3d, Zero_ende8
001CC7 EE              5317                             mov             A, R6
001CC8 8537F0          5318                             mov             B, 0x37
001CCB 95F0            5319                             subb    A, B
001CCD FE              5320                             mov             R6, A
001CCE ED              5321                             mov             A, R5
001CCF 8536F0          5322                             mov             B, 0x36
001CD2 95F0            5323                             subb    A, B
001CD4 FD              5324                             mov             R5, A
001CD5 C3              5325                             clr             C
001CD6 EE              5326                             mov             A, R6
001CD7 8557F0          5327                             mov             B, 0x57
001CDA 25F0            5328                             add             A, B
001CDC FE              5329                             mov             R6, A
001CDD ED              5330                             mov             A, R5
001CDE 8556F0          5331                             mov             B, 0x56
001CE1 35F0            5332                             addc    A, B
001CE3 FD              5333                             mov             R5, A
001CE4 020000     F    5334                             ljmp    Zero_ende20
                       5335     
001CE7 B40420          5336     Zero_ende8:     cjne    A, #4d, Zero_ende9
001CEA EE              5337                             mov             A, R6
001CEB 8539F0          5338                             mov             B, 0x39
001CEE 95F0            5339                             subb    A, B
001CF0 FE              5340                             mov             R6, A
001CF1 ED              5341                             mov             A, R5
001CF2 8538F0          5342                             mov             B, 0x38
AX51 MACRO ASSEMBLER  MESSVERST_NEW                                                         01/07/24 00:14:01 PAGE    86

001CF5 95F0            5343                             subb    A, B
001CF7 FD              5344                             mov             R5, A
001CF8 C3              5345                             clr             C
001CF9 EE              5346                             mov             A, R6
001CFA 8559F0          5347                             mov             B, 0x59
001CFD 25F0            5348                             add             A, B
001CFF FE              5349                             mov             R6, A
001D00 ED              5350                             mov             A, R5
001D01 8558F0          5351                             mov             B, 0x58
001D04 35F0            5352                             addc    A, B
001D06 FD              5353                             mov             R5, A
001D07 020000     F    5354                             ljmp    Zero_ende20
                       5355     
001D0A B40520          5356     Zero_ende9:     cjne    A, #5d, Zero_ende10
001D0D EE              5357                             mov             A, R6
001D0E 853BF0          5358                             mov             B, 0x3B
001D11 95F0            5359                             subb    A, B
001D13 FE              5360                             mov             R6, A
001D14 ED              5361                             mov             A, R5
001D15 853AF0          5362                             mov             B, 0x3A
001D18 95F0            5363                             subb    A, B
001D1A FD              5364                             mov             R5, A
001D1B C3              5365                             clr             C
001D1C EE              5366                             mov             A, R6
001D1D 855BF0          5367                             mov             B, 0x5B
001D20 25F0            5368                             add             A, B
001D22 FE              5369                             mov             R6, A
001D23 ED              5370                             mov             A, R5
001D24 855AF0          5371                             mov             B, 0x5A
001D27 35F0            5372                             addc    A, B
001D29 FD              5373                             mov             R5, A
001D2A 020000     F    5374                             ljmp    Zero_ende20
                       5375     
001D2D B40620          5376     Zero_ende10:cjne        A, #6d, Zero_ende11
001D30 EE              5377                             mov             A, R6
001D31 853DF0          5378                             mov             B, 0x3D
001D34 95F0            5379                             subb    A, B
001D36 FE              5380                             mov             R6, A
001D37 ED              5381                             mov             A, R5
001D38 853CF0          5382                             mov             B, 0x3C
001D3B 95F0            5383                             subb    A, B
001D3D FD              5384                             mov             R5, A
001D3E C3              5385                             clr             C
001D3F EE              5386                             mov             A, R6
001D40 855DF0          5387                             mov             B, 0x5D
001D43 25F0            5388                             add             A, B
001D45 FE              5389                             mov             R6, A
001D46 ED              5390                             mov             A, R5
001D47 855CF0          5391                             mov             B, 0x5C
001D4A 35F0            5392                             addc    A, B
001D4C FD              5393                             mov             R5, A
001D4D 020000     F    5394                             ljmp    Zero_ende20
                       5395     
001D50 B40720          5396     Zero_ende11:cjne        A, #7d, Zero_ende12
001D53 EE              5397                             mov             A, R6
001D54 853FF0          5398                             mov             B, 0x3F
001D57 95F0            5399                             subb    A, B
001D59 FE              5400                             mov             R6, A
001D5A ED              5401                             mov             A, R5
001D5B 853EF0          5402                             mov             B, 0x3E
001D5E 95F0            5403                             subb    A, B
001D60 FD              5404                             mov             R5, A
001D61 C3              5405                             clr             C
AX51 MACRO ASSEMBLER  MESSVERST_NEW                                                         01/07/24 00:14:01 PAGE    87

001D62 EE              5406                             mov             A, R6
001D63 855FF0          5407                             mov             B, 0x5F
001D66 25F0            5408                             add             A, B
001D68 FE              5409                             mov             R6, A
001D69 ED              5410                             mov             A, R5
001D6A 855EF0          5411                             mov             B, 0x5E
001D6D 35F0            5412                             addc    A, B
001D6F FD              5413                             mov             R5, A
001D70 020000     F    5414                             ljmp    Zero_ende20
                       5415     
001D73 B40820          5416     Zero_ende12:cjne        A, #8d, Zero_ende20
001D76 EE              5417                             mov             A, R6
001D77 8541F0          5418                             mov             B, 0x41
001D7A 95F0            5419                             subb    A, B
001D7C FE              5420                             mov             R6, A
001D7D ED              5421                             mov             A, R5
001D7E 8540F0          5422                             mov             B, 0x40
001D81 95F0            5423                             subb    A, B
001D83 FD              5424                             mov             R5, A
001D84 C3              5425                             clr             C
001D85 EE              5426                             mov             A, R6
001D86 8551F0          5427                             mov             B, 0x51
001D89 25F0            5428                             add             A, B
001D8B FE              5429                             mov             R6, A
001D8C ED              5430                             mov             A, R5
001D8D 8550F0          5431                             mov             B, 0x50
001D90 35F0            5432                             addc    A, B
001D92 FD              5433                             mov             R5, A
001D93 020000     F    5434                             ljmp    Zero_ende20
                       5435     
001D96 200003          5436     Zero_ende20:jb          RS485_mode, Zero_ende21
001D99 020000     F    5437                             ljmp    DISPLAY
001D9C 020000     F    5438     Zero_ende21: ljmp       UART_AZ_OK
                       5439     
                       5440     
                       5441     
001D9F BB4C02          5442     option:         cjne    R3, #76d, option1
001DA2 8003            5443                             jmp             option4
001DA4 020000     F    5444     option1:        ljmp    option100
001DA7 7B02            5445     option4:        mov             R3, #02h
001DA9 758C00          5446     option5:        mov             TH0, #00h
001DAC 758A00          5447                             mov             TL0, #00h
001DAF C28D            5448                             clr             TCON_TF0
001DB1 308DFD          5449     option6:        jnb             TCON_TF0, $
001DB4 DBF3            5450                             djnz    R3, option5
001DB6 7B00            5451     option7:        mov             R3, #00h
001DB8 D200       F    5452                             setb    LCD_fertig
                       5453     
001DBA 200008          5454                             jb              encoder_up, option10
001DBD 200034          5455                             jb              encoder_down, option12
001DC0 20005F          5456                             jb              encoder_middle, option20
001DC3 0100       F    5457                             jmp             option98
                       5458     
001DC5 C200       F    5459     option10:       clr             encoder_up
001DC7 20001F          5460                             jb              RS485_ID, option11_4
001DCA E51D            5461                             mov             A, 0x1D
001DCC C3              5462                             clr             C
001DCD B40505          5463                             cjne    A, #5d, option11
001DD0 751D05          5464                             mov             0x1D, #5d
001DD3 0100       F    5465                             jmp             option97
001DD5 051D            5466     option11:       inc     0x1D
001DD7 E51D            5467                             mov             A, 0x1D
001DD9 C3              5468                             clr             C
AX51 MACRO ASSEMBLER  MESSVERST_NEW                                                         01/07/24 00:14:01 PAGE    88

001DDA B40400          5469                             cjne    A, #4d, option11_1
001DDD 4002            5470     option11_1:     jc              option11_2
001DDF 8004            5471                             jmp             option11_3
001DE1 C200       F    5472     option11_2:     clr             PAGE2
001DE3 0100       F    5473                             jmp             option97
001DE5 D200       F    5474     option11_3:     setb    PAGE2
001DE7 0100       F    5475                             jmp             option97
001DE9 E54B            5476     option11_4:     mov             A, 0x4B
001DEB B40802          5477                             cjne    A, #8d, option11_5
001DEE 0100       F    5478                             jmp             option97
001DF0 054B            5479     option11_5:     inc             0x4B
001DF2 0100       F    5480                             jmp             option97
                       5481     
001DF4 C200       F    5482     option12:       clr             encoder_down
001DF6 20001E          5483                             jb              RS485_ID, option13_4
001DF9 E51D            5484                             mov             A, 0x1D
001DFB B40105          5485                             cjne    A, #1d, option13
001DFE 751D01          5486                             mov             0x1D, #1d
001E01 0100       F    5487                             jmp             option97
001E03 151D            5488     option13:       dec     0x1D
001E05 E51D            5489                             mov             A, 0x1D
001E07 C3              5490                             clr             C
001E08 B40400          5491                             cjne    A, #4d, option13_1
001E0B 4002            5492     option13_1:     jc              option13_2
001E0D 8004            5493                             jmp             option13_3
001E0F C200       F    5494     option13_2:     clr             PAGE2
001E11 0100       F    5495                             jmp             option97
001E13 D200       F    5496     option13_3:     setb    PAGE2
001E15 0100       F    5497                             jmp             option97
                       5498     
001E17 E54B            5499     option13_4:     mov             A, 0x4B
001E19 B40102          5500                             cjne    A, #1d, option13_5
001E1C 0100       F    5501                             jmp             option97
001E1E 154B            5502     option13_5:     dec             0x4B
001E20 0100       F    5503                             jmp             option97
                       5504     
001E22 C200       F    5505     option20:       clr             encoder_middle
001E24 C200       F    5506                             clr             Init_Display_OK
001E26 7B00            5507                             mov             R3, #00h
001E28 E51D            5508                             mov             A, 0x1D
001E2A B40115          5509                             cjne    A, #1d, option25
001E2D 200009          5510                             jb              LOCKED, option21
001E30 D200       F    5511                             setb    LOCKED
001E32 75EE40          5512                             mov             P1MASK, #40h
001E35 C200       F    5513                             clr             option_menu
001E37 0100       F    5514                             jmp             option97
                       5515     
                       5516     
001E39 C200       F    5517     option21:       clr             LOCKED
001E3B 75EE70          5518                             mov             P1MASK, #70h
001E3E C200       F    5519                             clr             option_menu
001E40 0100       F    5520                             jmp             option97
                       5521     
                       5522     
001E42 E51D            5523     option25:       mov             A, 0x1D
001E44 B40206          5524                             cjne    A, #2d, option30
001E47 C200       F    5525                             clr             option_menu
001E49 D200       F    5526                             setb    standby
001E4B 0100       F    5527                             jmp             option97
                       5528     
                       5529     
001E4D E51D            5530     option30:       mov             A, 0x1D
001E4F B40304          5531                             cjne    A, #3d, option31
AX51 MACRO ASSEMBLER  MESSVERST_NEW                                                         01/07/24 00:14:01 PAGE    89

001E52 C200       F    5532                             clr             option_menu
                       5533     
001E54 0100       F    5534                             jmp             option97
                       5535     
                       5536     
001E56 E51D            5537     option31:       mov             A, 0x1D
001E58 B40402          5538                             cjne    A, #4d, option32
001E5B 8003            5539                             jmp             option34
001E5D 020000     F    5540     option32:       ljmp    option38
001E60 C200       F    5541     option34:       clr             option_menu
001E62 200042          5542                             jb              RS485_mode, option35
001E65 D200       F    5543                             setb    RS485_mode
                       5544     
001E67 D2AC            5545                             setb    IE_ES0
001E69 C2A3            5546                             clr             DE_RE
                       5547     
                       5548     
001E6B C2AF            5549                             clr             IE_EA
001E6D 75B7A5          5550                             mov             FLKEY, #0A5h
001E70 75B7F1          5551                             mov             FLKEY, #0F1h
001E73 758F03          5552                             mov             PSCTL, #00000011b
001E76 90F000          5553                             MOV     DPTR,#0F000h
001E79 E4              5554                             clr             A
001E7A F0              5555                             movx    @DPTR, A
001E7B 758F00          5556                             mov             PSCTL, #00000000b
                       5557     
001E7E 75B7A5          5558                             mov             FLKEY, #0A5h
001E81 75B7F1          5559                             mov             FLKEY, #0F1h
001E84 758F01          5560                             mov             PSCTL, #00000001b
001E87 90F000          5561                             MOV     DPTR,#0F000h
001E8A E51D            5562                             mov             A, 0x1D
001E8C F0              5563                             movx    @DPTR, A
001E8D 758F00          5564                             mov             PSCTL, #00000000b
                       5565     
001E90 75B7A5          5566                             mov             FLKEY, #0A5h
001E93 75B7F1          5567                             mov             FLKEY, #0F1h
001E96 758F01          5568                             mov             PSCTL, #00000001b
001E99 90F001          5569                             MOV     DPTR,#0F001h
001E9C E54B            5570                             mov             A, 0x4B
001E9E F0              5571                             movx    @DPTR, A
001E9F 758F00          5572                             mov             PSCTL, #00000000b
001EA2 D2AF            5573                             setb    IE_EA
001EA4 E4              5574                             clr             A
001EA5 8077            5575                             jmp             option97
001EA7 C200       F    5576     option35:       clr             RS485_mode
                       5577     
                       5578     
001EA9 C2AF            5579                             clr             IE_EA
001EAB 75B7A5          5580                             mov             FLKEY, #0A5h
001EAE 75B7F1          5581                             mov             FLKEY, #0F1h
001EB1 758F03          5582                             mov             PSCTL, #00000011b
001EB4 90F000          5583                             MOV     DPTR,#0F000h
001EB7 E4              5584                             clr             A
001EB8 F0              5585                             movx    @DPTR, A
001EB9 758F00          5586                             mov             PSCTL, #00000000b
                       5587     
001EBC 75B7A5          5588                             mov             FLKEY, #0A5h
001EBF 75B7F1          5589                             mov             FLKEY, #0F1h
001EC2 758F01          5590                             mov             PSCTL, #00000001b
001EC5 90F000          5591                             MOV     DPTR,#0F000h
001EC8 7400            5592                             mov             A, #0d
001ECA F0              5593                             movx    @DPTR, A
001ECB 758F00          5594                             mov             PSCTL, #00000000b
AX51 MACRO ASSEMBLER  MESSVERST_NEW                                                         01/07/24 00:14:01 PAGE    90

                       5595     
001ECE 75B7A5          5596                             mov             FLKEY, #0A5h
001ED1 75B7F1          5597                             mov             FLKEY, #0F1h
001ED4 758F01          5598                             mov             PSCTL, #00000001b
001ED7 90F001          5599                             MOV     DPTR,#0F001h
001EDA E54B            5600                             mov             A, 0x4B
001EDC F0              5601                             movx    @DPTR, A
001EDD 758F00          5602                             mov             PSCTL, #00000000b
001EE0 D2AF            5603                             setb    IE_EA
001EE2 E4              5604                             clr             A
                       5605     
001EE3 C2AC            5606                             clr             IE_ES0
001EE5 8037            5607                             jmp             option97
                       5608     
                       5609     
001EE7 E51D            5610     option38:       mov             A, 0x1D
001EE9 B40532          5611                             cjne    A, #5d, option97
001EEC 200004          5612                             jb              RS485_ID, option39
001EEF D200       F    5613                             setb    RS485_ID
001EF1 802B            5614                             jmp             option97
001EF3 C200       F    5615     option39:       clr             RS485_ID
                       5616     
                       5617     
001EF5 C2AF            5618                             clr             IE_EA
001EF7 75B7A5          5619                             mov             FLKEY, #0A5h
001EFA 75B7F1          5620                             mov             FLKEY, #0F1h
001EFD 758F03          5621                             mov             PSCTL, #00000011b
001F00 90F000          5622                             MOV     DPTR,#0F000h
001F03 E4              5623                             clr             A
001F04 F0              5624                             movx    @DPTR, A
001F05 758F00          5625                             mov             PSCTL, #00000000b
                       5626     
                       5627     
                       5628     
                       5629     
                       5630     
                       5631     
                       5632     
                       5633     
                       5634     
001F08 75B7A5          5635                             mov             FLKEY, #0A5h
001F0B 75B7F1          5636                             mov             FLKEY, #0F1h
001F0E 758F01          5637                             mov             PSCTL, #00000001b
001F11 90F001          5638                             MOV     DPTR,#0F001h
001F14 E54B            5639                             mov             A, 0x4B
001F16 F0              5640                             movx    @DPTR, A
001F17 758F00          5641                             mov             PSCTL, #00000000b
001F1A D2AF            5642                             setb    IE_EA
                       5643     
001F1C 8000            5644                             jmp             option97
                       5645     
001F1E 751E15          5646     option97:       mov             0x1E, #15h
001F21 758C00          5647     option98:       mov             TH0, #00h
001F24 758A00          5648                             mov             TL0, #00h
001F27 C28D            5649                             clr             TCON_TF0
001F29 308DFD          5650                             jnb             TCON_TF0, $
001F2C D51EF2          5651                             djnz    0x1E, option98
                       5652     
001F2F D200       F    5653     option99:       setb    display_clr
001F31 C200       F    5654                             clr             SET_GAIN
001F33 020000     F    5655                             ljmp    main
                       5656     
                       5657     
AX51 MACRO ASSEMBLER  MESSVERST_NEW                                                         01/07/24 00:14:01 PAGE    91

001F36 0B              5658     option100:      inc             R3
                       5659     
001F37 BB1517          5660                             cjne    R3, #21d, option120
                       5661     
001F3A E51D            5662                             mov             A, 0x1D
001F3C B40105          5663                             cjne    A, #1d, option110
001F3F 787E            5664                             mov             R0, #7Eh
001F41 020000     F    5665                             ljmp    DISPLAY
001F44 B40405          5666     option110:      cjne    A, #4d, option111
001F47 787E            5667                             mov             R0, #7Eh
001F49 020000     F    5668                             ljmp    DISPLAY
001F4C 7820            5669     option111:      mov             R0, #20h
001F4E 020000     F    5670                             ljmp    DISPLAY
                       5671     
001F51 BB291A          5672     option120:      cjne    R3, #41d, option130
                       5673     
001F54 E51D            5674                             mov             A, 0x1D
001F56 B40205          5675                             cjne    A, #2d, option121
001F59 787E            5676                             mov             R0, #7Eh
001F5B 020000     F    5677                             ljmp    DISPLAY
001F5E B40508          5678     option121:      cjne    A, #5d, option122
001F61 200005          5679                             jb              RS485_ID, option122
001F64 787E            5680                             mov             R0, #7Eh
001F66 020000     F    5681                             ljmp    DISPLAY
001F69 7820            5682     option122:      mov             R0, #20h
001F6B 020000     F    5683                             ljmp    DISPLAY
                       5684     
001F6E BB350D          5685     option130:      cjne    R3, #53d, option133
001F71 300005          5686                             jnb             RS485_ID, option132
001F74 787E            5687                             mov             R0, #7Eh
001F76 020000     F    5688                             ljmp    DISPLAY
001F79 7820            5689     option132:      mov             R0, #20h
001F7B 020000     F    5690                             ljmp    DISPLAY
                       5691     
001F7E BB370F          5692     option133:      cjne    R3, #55d, option140
001F81 30000C          5693                             jnb             PAGE2, option140
001F84 200009          5694                             jb              RS485_mode, option140
001F87 E54B            5695                             mov             A, 0x4B
001F89 120000     F    5696                             call    TAB_HEX
001F8C F8              5697                             mov             R0, A
001F8D 020000     F    5698                             ljmp    DISPLAY
                       5699     
                       5700     
001F90 BB3D0F          5701     option140:      cjne    R3, #61d, option200
                       5702     
001F93 E51D            5703                             mov             A, 0x1D
001F95 B40305          5704                             cjne    A, #3d, option150
001F98 787E            5705                             mov             R0, #7Eh
001F9A 020000     F    5706                             ljmp    DISPLAY
001F9D 7820            5707     option150:      mov             R0, #20h
001F9F 020000     F    5708                             ljmp    DISPLAY
                       5709     
                       5710     
                       5711     
001FA2 EB              5712     option200:      mov             A, R3
001FA3 200009          5713                             jb              LOCKED, option250
001FA6 20000D          5714                             jb              PAGE2, option251
001FA9 1100       F    5715                             call    TAB_option_S1
001FAB F8              5716                             mov             R0, A
001FAC 020000     F    5717                             ljmp    DISPLAY
                       5718     
001FAF 120000     F    5719     option250:      call    TAB_option_UL
001FB2 F8              5720                             mov             R0, A
AX51 MACRO ASSEMBLER  MESSVERST_NEW                                                         01/07/24 00:14:01 PAGE    92

001FB3 020000     F    5721                             ljmp    DISPLAY
                       5722     
001FB6 200007          5723     option251:      jb              RS485_mode, option252
001FB9 120000     F    5724                             call    TAB_option_S2
001FBC F8              5725                             mov             R0, A
001FBD 020000     F    5726                             ljmp    DISPLAY
                       5727     
001FC0 120000     F    5728     option252:      call    TAB_option_S3
001FC3 F8              5729                             mov             R0, A
001FC4 020000     F    5730                             ljmp    DISPLAY
                       5731     
001FC7 83              5732     TAB_option_S1:  movc    A,@A+PC
001FC8 22              5733                             ret
                       5734     
001FC9 20              5735                             DB              20h
001FCA 20              5736                             DB              20h
001FCB 20              5737                             DB              20h
001FCC 20              5738                             DB              20h
001FCD 4F              5739                             DB              4Fh
001FCE 50              5740                             DB              50h
001FCF 54              5741                             DB              54h
001FD0 49              5742                             DB              49h
001FD1 4F              5743                             DB              4Fh
001FD2 4E              5744                             DB              4Eh
001FD3 53              5745                             DB              53h
001FD4 20              5746                             DB              20h
001FD5 20              5747                             DB              20h
001FD6 20              5748                             DB              20h
001FD7 20              5749                             DB              20h
001FD8 20              5750                             DB              20h
                       5751     
                       5752     
                       5753     
001FD9 20              5754                             DB              20h
001FDA 20              5755                             DB              20h
001FDB 20              5756                             DB              20h
001FDC 20              5757                             DB              20h
                       5758     
001FDD 20              5759                             DB              20h
001FDE 20              5760                             DB              20h
001FDF 20              5761                             DB              20h
001FE0 20              5762                             DB              20h
001FE1 4C              5763                             DB              4Ch
001FE2 6F              5764                             DB              6Fh
001FE3 63              5765                             DB              63h
001FE4 6B              5766                             DB              6Bh
001FE5 20              5767                             DB              20h
001FE6 20              5768                             DB              20h
001FE7 20              5769                             DB              20h
001FE8 20              5770                             DB              20h
001FE9 20              5771                             DB              20h
001FEA 20              5772                             DB              20h
001FEB 20              5773                             DB              20h
001FEC 20              5774                             DB              20h
                       5775     
001FED 20              5776                             DB              20h
001FEE 20              5777                             DB              20h
001FEF 20              5778                             DB              20h
001FF0 20              5779                             DB              20h
                       5780     
                       5781     
001FF1 20              5782                             DB              20h
001FF2 20              5783                             DB              20h
AX51 MACRO ASSEMBLER  MESSVERST_NEW                                                         01/07/24 00:14:01 PAGE    93

001FF3 20              5784                             DB              20h
001FF4 20              5785                             DB              20h
001FF5 53              5786                             DB              53h
001FF6 74              5787                             DB              74h
001FF7 61              5788                             DB              61h
001FF8 6E              5789                             DB              6Eh
001FF9 64              5790                             DB              64h
001FFA 62              5791                             DB              62h
001FFB 79              5792                             DB              79h
001FFC 20              5793                             DB              20h
001FFD 20              5794                             DB              20h
001FFE 20              5795                             DB              20h
001FFF 20              5796                             DB              20h
002000 20              5797                             DB              20h
                       5798     
002001 20              5799                             DB              20h
002002 20              5800                             DB              20h
002003 20              5801                             DB              20h
002004 20              5802                             DB              20h
                       5803     
002005 20              5804                             DB              20h
002006 20              5805                             DB              20h
002007 20              5806                             DB              20h
002008 20              5807                             DB              20h
002009 43              5808                             DB              43h
00200A 61              5809                             DB              61h
00200B 6E              5810                             DB              6Eh
00200C 63              5811                             DB              63h
00200D 65              5812                             DB              65h
00200E 6C              5813                             DB              6Ch
00200F 20              5814                             DB              20h
002010 20              5815                             DB              20h
002011 20              5816                             DB              20h
002012 31              5817                             DB              31h
002013 2F              5818                             DB              2Fh
002014 32              5819                             DB              32h
002015 22              5820                             ret
                       5821     
002016 83              5822     TAB_option_S2:  movc    A,@A+PC
002017 22              5823                             ret
                       5824     
002018 20              5825                             DB              20h
002019 20              5826                             DB              20h
00201A 20              5827                             DB              20h
00201B 20              5828                             DB              20h
00201C 4F              5829                             DB              4Fh
00201D 50              5830                             DB              50h
00201E 54              5831                             DB              54h
00201F 49              5832                             DB              49h
002020 4F              5833                             DB              4Fh
002021 4E              5834                             DB              4Eh
002022 53              5835                             DB              53h
002023 20              5836                             DB              20h
002024 20              5837                             DB              20h
002025 20              5838                             DB              20h
002026 20              5839                             DB              20h
002027 20              5840                             DB              20h
                       5841     
                       5842     
                       5843     
002028 20              5844                             DB              20h
002029 20              5845                             DB              20h
00202A 20              5846                             DB              20h
AX51 MACRO ASSEMBLER  MESSVERST_NEW                                                         01/07/24 00:14:01 PAGE    94

00202B 20              5847                             DB              20h
                       5848     
00202C 20              5849                             DB              20h
00202D 20              5850                             DB              20h
00202E 20              5851                             DB              20h
00202F 20              5852                             DB              20h
002030 45              5853                             DB              45h
002031 6E              5854                             DB              6Eh
002032 61              5855                             DB              61h
002033 62              5856                             DB              62h
002034 6C              5857                             DB              6Ch
002035 65              5858                             DB              65h
002036 20              5859                             DB              20h
002037 52              5860                             DB              52h
002038 53              5861                             DB              53h
002039 34              5862                             DB              34h
00203A 38              5863                             DB              38h
00203B 35              5864                             DB              35h
                       5865     
                       5866     
                       5867     
00203C 20              5868                             DB              20h
00203D 20              5869                             DB              20h
00203E 20              5870                             DB              20h
00203F 20              5871                             DB              20h
                       5872     
                       5873     
002040 20              5874                             DB              20h
002041 20              5875                             DB              20h
002042 20              5876                             DB              20h
002043 20              5877                             DB              20h
002044 52              5878                             DB              52h
002045 53              5879                             DB              53h
002046 34              5880                             DB              34h
002047 38              5881                             DB              38h
002048 35              5882                             DB              35h
002049 2D              5883                             DB              2Dh
00204A 49              5884                             DB              49h
00204B 44              5885                             DB              44h
00204C 20              5886                             DB              20h
00204D 5B              5887                             DB              5Bh
00204E 20              5888                             DB              20h
00204F 5D              5889                             DB              5Dh
                       5890     
002050 20              5891                             DB              20h
002051 20              5892                             DB              20h
002052 20              5893                             DB              20h
002053 20              5894                             DB              20h
                       5895     
002054 20              5896                             DB              20h
002055 20              5897                             DB              20h
002056 20              5898                             DB              20h
002057 20              5899                             DB              20h
002058 20              5900                             DB              20h
002059 20              5901                             DB              20h
00205A 20              5902                             DB              20h
00205B 20              5903                             DB              20h
00205C 20              5904                             DB              20h
00205D 20              5905                             DB              20h
00205E 20              5906                             DB              20h
00205F 20              5907                             DB              20h
002060 20              5908                             DB              20h
002061 32              5909                             DB              32h
AX51 MACRO ASSEMBLER  MESSVERST_NEW                                                         01/07/24 00:14:01 PAGE    95

002062 2F              5910                             DB              2Fh
002063 32              5911                             DB              32h
002064 22              5912                             ret
                       5913     
002065 83              5914     TAB_option_S3:  movc    A,@A+PC
002066 22              5915                             ret
                       5916     
002067 20              5917                             DB              20h
002068 20              5918                             DB              20h
002069 20              5919                             DB              20h
00206A 20              5920                             DB              20h
00206B 4F              5921                             DB              4Fh
00206C 50              5922                             DB              50h
00206D 54              5923                             DB              54h
00206E 49              5924                             DB              49h
00206F 4F              5925                             DB              4Fh
002070 4E              5926                             DB              4Eh
002071 53              5927                             DB              53h
002072 20              5928                             DB              20h
002073 20              5929                             DB              20h
002074 20              5930                             DB              20h
002075 20              5931                             DB              20h
002076 20              5932                             DB              20h
                       5933     
                       5934     
                       5935     
002077 20              5936                             DB              20h
002078 20              5937                             DB              20h
002079 20              5938                             DB              20h
00207A 20              5939                             DB              20h
                       5940     
00207B 20              5941                             DB              20h
00207C 20              5942                             DB              20h
00207D 20              5943                             DB              20h
00207E 44              5944                             DB              44h
00207F 69              5945                             DB              69h
002080 73              5946                             DB              73h
002081 61              5947                             DB              61h
002082 62              5948                             DB              62h
002083 6C              5949                             DB              6Ch
002084 65              5950                             DB              65h
002085 20              5951                             DB              20h
002086 52              5952                             DB              52h
002087 53              5953                             DB              53h
002088 34              5954                             DB              34h
002089 38              5955                             DB              38h
00208A 35              5956                             DB              35h
                       5957     
                       5958     
                       5959     
00208B 20              5960                             DB              20h
00208C 20              5961                             DB              20h
00208D 20              5962                             DB              20h
00208E 20              5963                             DB              20h
                       5964     
                       5965     
00208F 20              5966                             DB              20h
002090 20              5967                             DB              20h
002091 20              5968                             DB              20h
002092 20              5969                             DB              20h
002093 20              5970                             DB              20h
002094 20              5971                             DB              20h
002095 20              5972                             DB              20h
AX51 MACRO ASSEMBLER  MESSVERST_NEW                                                         01/07/24 00:14:01 PAGE    96

002096 20              5973                             DB              20h
002097 20              5974                             DB              20h
002098 20              5975                             DB              20h
002099 20              5976                             DB              20h
00209A 20              5977                             DB              20h
00209B 20              5978                             DB              20h
00209C 20              5979                             DB              20h
00209D 20              5980                             DB              20h
00209E 20              5981                             DB              20h
                       5982     
00209F 20              5983                             DB              20h
0020A0 20              5984                             DB              20h
0020A1 20              5985                             DB              20h
0020A2 20              5986                             DB              20h
                       5987     
0020A3 20              5988                             DB              20h
0020A4 20              5989                             DB              20h
0020A5 20              5990                             DB              20h
0020A6 20              5991                             DB              20h
0020A7 20              5992                             DB              20h
0020A8 20              5993                             DB              20h
0020A9 20              5994                             DB              20h
0020AA 20              5995                             DB              20h
0020AB 20              5996                             DB              20h
0020AC 20              5997                             DB              20h
0020AD 20              5998                             DB              20h
0020AE 20              5999                             DB              20h
0020AF 20              6000                             DB              20h
0020B0 20              6001                             DB              20h
0020B1 20              6002                             DB              20h
0020B2 20              6003                             DB              20h
0020B3 22              6004                             ret
                       6005     
0020B4 83              6006     TAB_option_UL:  movc    A,@A+PC
0020B5 22              6007                             ret
                       6008     
0020B6 20              6009                             DB              20h
0020B7 20              6010                             DB              20h
0020B8 20              6011                             DB              20h
0020B9 20              6012                             DB              20h
0020BA 4F              6013                             DB              4Fh
0020BB 50              6014                             DB              50h
0020BC 54              6015                             DB              54h
0020BD 49              6016                             DB              49h
0020BE 4F              6017                             DB              4Fh
0020BF 4E              6018                             DB              4Eh
0020C0 53              6019                             DB              53h
0020C1 20              6020                             DB              20h
0020C2 20              6021                             DB              20h
0020C3 20              6022                             DB              20h
0020C4 20              6023                             DB              20h
0020C5 20              6024                             DB              20h
                       6025     
                       6026     
                       6027     
0020C6 20              6028                             DB              20h
0020C7 20              6029                             DB              20h
0020C8 20              6030                             DB              20h
0020C9 20              6031                             DB              20h
                       6032     
0020CA 20              6033                             DB              20h
0020CB 20              6034                             DB              20h
0020CC 20              6035                             DB              20h
AX51 MACRO ASSEMBLER  MESSVERST_NEW                                                         01/07/24 00:14:01 PAGE    97

0020CD 20              6036                             DB              20h
0020CE 55              6037                             DB              55h
0020CF 6E              6038                             DB              6Eh
0020D0 6C              6039                             DB              6Ch
0020D1 6F              6040                             DB              6Fh
0020D2 63              6041                             DB              63h
0020D3 6B              6042                             DB              6Bh
0020D4 20              6043                             DB              20h
0020D5 20              6044                             DB              20h
0020D6 20              6045                             DB              20h
0020D7 20              6046                             DB              20h
0020D8 20              6047                             DB              20h
0020D9 20              6048                             DB              20h
                       6049     
0020DA 20              6050                             DB              20h
0020DB 20              6051                             DB              20h
0020DC 20              6052                             DB              20h
0020DD 20              6053                             DB              20h
                       6054     
                       6055     
0020DE 20              6056                             DB              20h
0020DF 20              6057                             DB              20h
0020E0 20              6058                             DB              20h
0020E1 20              6059                             DB              20h
0020E2 20              6060                             DB              20h
0020E3 20              6061                             DB              20h
0020E4 20              6062                             DB              20h
0020E5 20              6063                             DB              20h
0020E6 20              6064                             DB              20h
0020E7 20              6065                             DB              20h
0020E8 20              6066                             DB              20h
0020E9 20              6067                             DB              20h
0020EA 20              6068                             DB              20h
0020EB 20              6069                             DB              20h
0020EC 20              6070                             DB              20h
0020ED 20              6071                             DB              20h
                       6072     
0020EE 20              6073                             DB              20h
0020EF 20              6074                             DB              20h
0020F0 20              6075                             DB              20h
0020F1 20              6076                             DB              20h
                       6077     
0020F2 20              6078                             DB              20h
0020F3 20              6079                             DB              20h
0020F4 20              6080                             DB              20h
0020F5 20              6081                             DB              20h
0020F6 20              6082                             DB              20h
0020F7 20              6083                             DB              20h
0020F8 20              6084                             DB              20h
0020F9 20              6085                             DB              20h
0020FA 20              6086                             DB              20h
0020FB 20              6087                             DB              20h
0020FC 20              6088                             DB              20h
0020FD 20              6089                             DB              20h
0020FE 20              6090                             DB              20h
0020FF 20              6091                             DB              20h
002100 20              6092                             DB              20h
002101 20              6093                             DB              20h
                       6094     
002102 22              6095                             ret
                       6096     
                       6097     
                       6098     
AX51 MACRO ASSEMBLER  MESSVERST_NEW                                                         01/07/24 00:14:01 PAGE    98

002103                 6099     DISPLAY:
002103 D200       F    6100                             setb    SPI_DISPLAY
                       6101     
                       6102     
                       6103     
002105 20003A          6104                             jb              display_clr, DISPLAY50
002108 20005A          6105                             jb              Init_Display_OK, DISPLAY100
                       6106     
00210B BB0D1D          6107     init1:          cjne    R3, #13d, init2
00210E D200       F    6108                             setb    Init_Display_OK
002110 7B00            6109                             mov             R3, #00h
002112 758C00          6110                             mov             TH0, #00h
002115 758A00          6111                             mov             TL0, #00h
002118 C28D            6112                             clr             TCON_TF0
00211A 308DFD          6113     init_delay:     jnb             TCON_TF0, $
                       6114     
00211D 200006          6115                             jb              overheat, init11
002120 200003          6116                             jb              SONDERMENU, init11
002123 020000     F    6117                             ljmp    main
002126 D200       F    6118     init11:         setb    display_clear
002128 020000     F    6119                             ljmp    main
                       6120     
00212B 0B              6121     init2:          inc             R3
00212C EB              6122                             mov             A, R3
00212D 1100       F    6123                             call    TAB_INIT
00212F F8              6124                             mov             R0, A
002130 8033            6125                             jmp             DISPLAY100
                       6126     
002132 83              6127     TAB_INIT:       movc    A,@A+PC
002133 22              6128                             ret
002134 3A              6129                             DB              3Ah
002135 0B              6130                             DB              0Bh
002136 06              6131                             DB              06h
002137 1E              6132                             DB              1Eh
002138 39              6133                             DB              39h
002139 1B              6134                             DB              1Bh
00213A 6C              6135                             DB              6Ch
00213B 54              6136                             DB              54h
00213C 70              6137                             DB              70h
00213D 38              6138                             DB              38h
00213E 0E              6139                             DB              0Eh
00213F 01              6140                             DB              01h
002140 02              6141                             DB              02h
002141 22              6142                             ret
                       6143     
                       6144     
002142 BB0115          6145     DISPLAY50:      cjne    R3, #1d, DISPLAY53
002145 7B00            6146                             mov             R3, #00h
002147 758C00          6147                             mov             TH0, #00h
00214A 758A00          6148                             mov             TL0, #00h
00214D C28D            6149                             clr             TCON_TF0
00214F 308DFD          6150     DISPLAY51:      jnb             TCON_TF0, $
002152 758922          6151                             mov             TMOD, #22h
                       6152     
002155 C200       F    6153     DISPLAY52:      clr             display_clr
002157 020000     F    6154                             ljmp    main
                       6155     
00215A 0B              6156     DISPLAY53:      inc             R3
00215B EB              6157                             mov             A, R3
00215C 1100       F    6158                             call    TAB_CLR
00215E F8              6159                             mov             R0, A
00215F 8004            6160                             jmp             DISPLAY100
                       6161     
AX51 MACRO ASSEMBLER  MESSVERST_NEW                                                         01/07/24 00:14:01 PAGE    99

002161 83              6162     TAB_CLR:        movc    A,@A+PC
002162 22              6163                             ret
002163 03              6164                             DB              03h
002164 22              6165                             ret
                       6166     
                       6167     
                       6168     
                       6169     
002165 200003          6170     DISPLAY100:     jb                      display_clr, DISPLAY101
002168 200005          6171                             jb                      Init_Display_OK, DISPLAY102
00216B 7511F8          6172     DISPLAY101:     mov                     0x11, #0F8h
00216E 8003            6173                             jmp                     DISPLAY103
                       6174     
002170 7511FA          6175     DISPLAY102:     mov                     0x11, #0FAh
                       6176     
002173 E8              6177     DISPLAY103:     mov                     A, R0
002174 03              6178                             rr                      A
002175 5480            6179                             anl                     A, #10000000b
002177 F510            6180                             mov                     0x10, A
002179 8510F0          6181                             mov                     B, 0x10
                       6182     
00217C E8              6183                             mov                     A, R0
00217D 03              6184                             rr                      A
00217E 03              6185                             rr                      A
00217F 03              6186                             rr                      A
002180 5440            6187                             anl                     A, #01000000b
002182 2510            6188                             add                     A, 0x10
002184 F5F0            6189                             mov                     B, A
002186 F510            6190                             mov                     0x10, A
                       6191     
002188 E8              6192                             mov                     A, R0
002189 03              6193                             rr                      A
00218A 03              6194                             rr                      A
00218B 03              6195                             rr                      A
00218C 03              6196                             rr                      A
00218D 03              6197                             rr                      A
00218E 5420            6198                             anl                     A, #00100000b
002190 2510            6199                             add                     A, 0x10
002192 F5F0            6200                             mov                     B, A
002194 F510            6201                             mov                     0x10, A
                       6202     
002196 E8              6203                             mov                     A, R0
002197 03              6204                             rr                      A
002198 03              6205                             rr                      A
002199 03              6206                             rr                      A
00219A 03              6207                             rr                      A
00219B 03              6208                             rr                      A
00219C 03              6209                             rr                      A
00219D 03              6210                             rr                      A
00219E 5410            6211                             anl                     A, #00010000b
0021A0 2510            6212                             add                     A, 0x10
0021A2 F512            6213                             mov                     0x12, A
                       6214     
                       6215     
                       6216     
0021A4 E8              6217                             mov                     A, R0
0021A5 C4              6218                             swap            A
0021A6 03              6219                             rr                      A
0021A7 5480            6220                             anl                     A, #10000000b
0021A9 F510            6221                             mov                     0x10, A
0021AB 8510F0          6222                             mov                     B, 0x10
                       6223     
0021AE E8              6224                             mov                     A, R0
AX51 MACRO ASSEMBLER  MESSVERST_NEW                                                         01/07/24 00:14:01 PAGE   100

0021AF C4              6225                             swap            A
0021B0 03              6226                             rr                      A
0021B1 03              6227                             rr                      A
0021B2 03              6228                             rr                      A
0021B3 5440            6229                             anl                     A, #01000000b
0021B5 2510            6230                             add                     A, 0x10
0021B7 F5F0            6231                             mov                     B, A
0021B9 F510            6232                             mov                     0x10, A
                       6233     
0021BB E8              6234                             mov                     A, R0
0021BC C4              6235                             swap            A
0021BD 03              6236                             rr                      A
0021BE 03              6237                             rr                      A
0021BF 03              6238                             rr                      A
0021C0 03              6239                             rr                      A
0021C1 03              6240                             rr                      A
0021C2 5420            6241                             anl                     A, #00100000b
0021C4 2510            6242                             add                     A, 0x10
0021C6 F5F0            6243                             mov                     B, A
0021C8 F510            6244                             mov                     0x10, A
                       6245     
0021CA E8              6246                             mov                     A, R0
0021CB C4              6247                             swap            A
0021CC 03              6248                             rr                      A
0021CD 03              6249                             rr                      A
0021CE 03              6250                             rr                      A
0021CF 03              6251                             rr                      A
0021D0 03              6252                             rr                      A
0021D1 03              6253                             rr                      A
0021D2 03              6254                             rr                      A
0021D3 5410            6255                             anl                     A, #00010000b
0021D5 2510            6256                             add                     A, 0x10
0021D7 F513            6257                             mov                     0x13, A
                       6258     
0021D9 D2FF            6259                             setb    SPI0CN0_SPIF
0021DB 3000FD          6260                             jnb             wait_for_SPI, $
0021DE C200       F    6261                             clr             wait_for_SPI
                       6262     
0021E0 020000     F    6263     DISPLAY200:     jmp             main
                       6264     
                       6265     
0021E3 300003          6266     KALIBRIER1:     jnb             selbsttest, KALIBRIER2
0021E6 020000     F    6267                             ljmp    KALIBRIER21
                       6268     
0021E9 C2A4            6269     KALIBRIER2:     clr             LED_GREEN
0021EB C2A5            6270                             clr             LED_RED
0021ED D2A6            6271                             setb    LED_WHITE
                       6272     
0021EF 758921          6273                             mov             TMOD, #21h
0021F2 7804            6274                             mov             R0, #04h
0021F4 758A00          6275     KALIBRIER3:     mov             TL0, #00h
0021F7 758C00          6276                             mov             TH0, #00h
0021FA 308DFD          6277                             jnb             TCON_TF0, $
0021FD C28D            6278                             clr             TCON_TF0
0021FF D8F3            6279                             djnz    R0, KALIBRIER3
                       6280     
002201 C2A4            6281                             clr             LED_GREEN
002203 D2A5            6282                             setb    LED_RED
002205 C2A6            6283                             clr             LED_WHITE
                       6284     
002207 7804            6285                             mov             R0, #04h
002209 758A00          6286     KALIBRIER4:     mov             TL0, #00h
00220C 758C00          6287                             mov             TH0, #00h
AX51 MACRO ASSEMBLER  MESSVERST_NEW                                                         01/07/24 00:14:01 PAGE   101

00220F 308DFD          6288                             jnb             TCON_TF0, $
002212 C28D            6289                             clr             TCON_TF0
002214 D8F3            6290                             djnz    R0, KALIBRIER4
                       6291     
002216 D2A4            6292                             setb    LED_GREEN
002218 C2A5            6293                             clr             LED_RED
00221A C2A6            6294                             clr             LED_WHITE
                       6295     
00221C 7804            6296                             mov             R0, #04h
00221E 758A00          6297     KALIBRIER5:     mov             TL0, #00h
002221 758C00          6298                             mov             TH0, #00h
002224 308DFD          6299                             jnb             TCON_TF0, $
002227 C28D            6300                             clr             TCON_TF0
002229 D8F3            6301                             djnz    R0, KALIBRIER5
                       6302     
00222B C2A4            6303                             clr             LED_GREEN
00222D C2A5            6304                             clr             LED_RED
00222F D2A6            6305                             setb    LED_WHITE
002231 D200       F    6306                             setb    selbsttest
002233 758922          6307                             mov             TMOD, #22h
                       6308     
002236 300003          6309     KALIBRIER21:jnb         settings_saved, KALIBRIER22
002239 020000     F    6310                             ljmp    saved_0
00223C BB4C1B          6311     KALIBRIER22:cjne        R3, #76d, KALIBRIER30
00223F 7BFF            6312                             mov             R3, #0FFh
002241 758C00          6313     KALIBRIER23:mov         TH0, #00h
002244 758A00          6314                             mov             TL0, #00h
002247 C28D            6315                             clr             TCON_TF0
002249 308DFD          6316                             jnb             TCON_TF0, $
00224C 1B              6317                             dec             R3
00224D BB00F1          6318                             cjne    R3, #00d, KALIBRIER23
002250 758922          6319                             mov             TMOD, #22h
002253 D200       F    6320                             setb    display_clr
002255 7B00            6321                             mov             R3, #00h
002257 020000     F    6322                             ljmp    DISPLAY
                       6323     
                       6324     
                       6325     
                       6326     
                       6327     
                       6328     
                       6329     
                       6330     
                       6331     
                       6332     
                       6333     
                       6334     
                       6335     
                       6336     
                       6337     
                       6338     
                       6339     
00225A 200003          6340     KALIBRIER30:jb          BIT_GAIN_500, KALIBRIER31
00225D 020000     F    6341                             ljmp    KALIB_500_0
002260 200003          6342     KALIBRIER31:jb          BIT_GAIN_1K, KALIBRIER32
002263 020000     F    6343                             ljmp    KALIB_1k_0
002266 200003          6344     KALIBRIER32:jb          BIT_GAIN_2K, KALIBRIER33
002269 020000     F    6345                             ljmp    KALIB_2k_0
00226C 200003          6346     KALIBRIER33:jb          BIT_GAIN_5K, KALIBRIER34
00226F 020000     F    6347                             ljmp    KALIB_5k_0
002272 200003          6348     KALIBRIER34:jb          BIT_GAIN_10K, KALIBRIER35
002275 020000     F    6349                             ljmp    KALIB_10k_0
002278 200003          6350     KALIBRIER35:jb          BIT_GAIN_25K, KALIBRIER36
AX51 MACRO ASSEMBLER  MESSVERST_NEW                                                         01/07/24 00:14:01 PAGE   102

00227B 020000     F    6351                             ljmp    KALIB_25K_0
00227E 200003          6352     KALIBRIER36:jb          BIT_GAIN_50K, KALIBRIER37
002281 020000     F    6353                             ljmp    KALIB_50K_0
002284 200003          6354     KALIBRIER37:jb          BIT_GAIN_60K, KALIBRIER37_1
002287 020000     F    6355                             ljmp    KALIB_60k_0
00228A 200003          6356     KALIBRIER37_1:  jb              KALIB_end, KALIBRIER38
00228D 020000     F    6357                             ljmp    KALIB_end_0
                       6358     
002290                 6359     KALIBRIER38:
002290 D200       F    6360                             setb    display_clr
002292 7B00            6361                             mov             R3, #00h
                       6362     
002294 020000     F    6363                             ljmp    KALIBRIEREN_ENDE
                       6364     
                       6365     
002297 D297            6366     KALIB_500_0:setb        E
002299 C293            6367                             clr             S1
00229B C292            6368                             clr             S2
                       6369                             ;clr            S3
00229D C297            6370                             clr             E
00229F 758C00          6371                             mov             TH0, #00h
0022A2 758A00          6372                             mov             TL0, #00h
0022A5 C28D            6373                             clr             TCON_TF0
0022A7 308DFD          6374                             jnb             TCON_TF0, $
0022AA D56A05          6375                             djnz    0x6A, KALIB_500_1
0022AD D56B02          6376                             djnz    0x6B, KALIB_500_1
0022B0 8003            6377                             jmp             KALIB_500_2
0022B2 020000     F    6378     KALIB_500_1:ljmp        KALIB_500_6
0022B5 756ADD          6379     KALIB_500_2:mov         0x6A, #0DDh
0022B8 891B            6380                             mov             0x1B, R1
0022BA 8A1C            6381                             mov             0x1C, R2
0022BC 7900            6382                             mov             R1, #00h
0022BE 7A00            6383                             mov             R2, #00h
0022C0 754900          6384                             mov             0x49, #00h
0022C3 75F002          6385                             mov             B, #2d
0022C6 C3              6386                             clr             C
0022C7 E51B            6387                             mov             A, 0x1B
0022C9 75F002          6388                             mov             B, #2d
0022CC 84              6389                             div             AB
0022CD F9              6390                             mov             R1, A
0022CE E5F0            6391                             mov             A, B
0022D0 B40103          6392                             cjne    A, #1d, KALIB_500_3
0022D3 754980          6393                             mov             0x49, #80h
0022D6 C3              6394     KALIB_500_3:clr         C
0022D7 E51C            6395                             mov             A, 0x1C
0022D9 75F002          6396                             mov             B, #2d
0022DC 84              6397                             div             AB
0022DD C3              6398                             clr             C
0022DE 2549            6399                             add             A, 0x49
0022E0 FA              6400                             mov             R2, A
0022E1 E4              6401                             clr             A
0022E2 39              6402                             addc    A, R1
0022E3 F9              6403                             mov             R1, A
0022E4 30000C          6404                             jnb             OUTPUT_POSITIV, KALIB_500_4
0022E7 8932            6405                             mov             0x32,R1
0022E9 8A33            6406                             mov             0x33,R2
0022EB 755200          6407                             mov             0x52, #00h
0022EE 755300          6408                             mov             0x53, #00h
0022F1 800A            6409                             jmp             KALIB_500_5
0022F3 8952            6410     KALIB_500_4:mov         0x52,R1
0022F5 8A53            6411                             mov             0x53,R2
0022F7 753200          6412                             mov             0x32, #00h
0022FA 753300          6413                             mov             0x33, #00h
AX51 MACRO ASSEMBLER  MESSVERST_NEW                                                         01/07/24 00:14:01 PAGE   103

0022FD D200       F    6414     KALIB_500_5:setb        BIT_GAIN_500
0022FF 8003            6415                             jmp             KALIB_1k_0
002301 020000     F    6416     KALIB_500_6:ljmp        KALIBRIER39
                       6417     
                       6418     
                       6419     
002304 D297            6420     KALIB_1k_0:     setb    E
002306 D293            6421                             setb    S1
002308 C292            6422                             clr             S2
                       6423                             ;clr            S3
00230A C297            6424                             clr             E
00230C 758C00          6425                             mov             TH0, #00h
00230F 758A00          6426                             mov             TL0, #00h
002312 C28D            6427                             clr             TCON_TF0
002314 308DFD          6428                             jnb             TCON_TF0, $
002317 D56A02          6429                             djnz    0x6A, KALIB_1k_1
00231A 8003            6430                             jmp             KALIB_1k_2
00231C 020000     F    6431     KALIB_1k_1:     ljmp    KALIB_1k_6
00231F 756ADD          6432     KALIB_1k_2:     mov             0x6A, #0DDh
002322 891B            6433                             mov             0x1B, R1
002324 8A1C            6434                             mov             0x1C, R2
002326 7900            6435                             mov             R1, #00h
002328 7A00            6436                             mov             R2, #00h
00232A 754900          6437                             mov             0x49, #00h
00232D 75F002          6438                             mov             B, #2d
002330 C3              6439                             clr             C
002331 E51B            6440                             mov             A, 0x1B
002333 75F002          6441                             mov             B, #2d
002336 84              6442                             div             AB
002337 F9              6443                             mov             R1, A
002338 E5F0            6444                             mov             A, B
00233A B40103          6445                             cjne    A, #1d, KALIB_1k_3
00233D 754980          6446                             mov             0x49, #80h
002340 C3              6447     KALIB_1k_3:     clr             C
002341 E51C            6448                             mov             A, 0x1C
002343 75F002          6449                             mov             B, #2d
002346 84              6450                             div             AB
002347 C3              6451                             clr             C
002348 2549            6452                             add             A, 0x49
00234A FA              6453                             mov             R2, A
00234B E4              6454                             clr             A
00234C 39              6455                             addc    A, R1
00234D F9              6456                             mov             R1, A
00234E 30000C          6457                             jnb             OUTPUT_POSITIV, KALIB_1k_4
002351 8934            6458                             mov             0x34,R1
002353 8A35            6459                             mov             0x35,R2
002355 755400          6460                             mov             0x54, #00h
002358 755500          6461                             mov             0x55, #00h
00235B 800A            6462                             jmp             KALIB_1k_5
00235D 8954            6463     KALIB_1k_4:     mov             0x54,R1
00235F 8A55            6464                             mov             0x55,R2
002361 753400          6465                             mov             0x34, #00h
002364 753500          6466                             mov             0x35, #00h
002367 D200       F    6467     KALIB_1k_5:     setb    BIT_GAIN_1K
002369 8003            6468                             jmp             KALIB_2k_0
00236B 020000     F    6469     KALIB_1k_6:     ljmp    KALIBRIER39
                       6470     
                       6471     
                       6472     
00236E D297            6473     KALIB_2k_0:     setb    E
002370 C293            6474                             clr             S1
002372 D292            6475                             setb    S2
                       6476                             ;clr            S3
AX51 MACRO ASSEMBLER  MESSVERST_NEW                                                         01/07/24 00:14:01 PAGE   104

002374 C297            6477                             clr             E
002376 758C00          6478                             mov             TH0, #00h
002379 758A00          6479                             mov             TL0, #00h
00237C C28D            6480                             clr             TCON_TF0
00237E 308DFD          6481                             jnb             TCON_TF0, $
002381 D56A02          6482                             djnz    0x6A, KALIB_2k_1
002384 8003            6483                             jmp             KALIB_2k_2
002386 020000     F    6484     KALIB_2k_1:     ljmp    KALIB_2k_6
002389 756ADD          6485     KALIB_2k_2:     mov             0x6A, #0DDh
00238C 891B            6486                             mov             0x1B, R1
00238E 8A1C            6487                             mov             0x1C, R2
002390 7900            6488                             mov             R1, #00h
002392 7A00            6489                             mov             R2, #00h
002394 754900          6490                             mov             0x49, #00h
002397 75F002          6491                             mov             B, #2d
00239A C3              6492                             clr             C
00239B E51B            6493                             mov             A, 0x1B
00239D 75F002          6494                             mov             B, #2d
0023A0 84              6495                             div             AB
0023A1 F9              6496                             mov             R1, A
0023A2 E5F0            6497                             mov             A, B
0023A4 B40103          6498                             cjne    A, #1d, KALIB_2k_3
0023A7 754980          6499                             mov             0x49, #80h
0023AA C3              6500     KALIB_2k_3:     clr             C
0023AB E51C            6501                             mov             A, 0x1C
0023AD 75F002          6502                             mov             B, #2d
0023B0 84              6503                             div             AB
0023B1 C3              6504                             clr             C
0023B2 2549            6505                             add             A, 0x49
0023B4 FA              6506                             mov             R2, A
0023B5 E4              6507                             clr             A
0023B6 39              6508                             addc    A, R1
0023B7 F9              6509                             mov             R1, A
0023B8 30000C          6510                             jnb             OUTPUT_POSITIV, KALIB_2k_4
0023BB 8936            6511                             mov             0x36,R1
0023BD 8A37            6512                             mov             0x37,R2
0023BF 755600          6513                             mov             0x56, #00h
0023C2 755700          6514                             mov             0x57, #00h
0023C5 800A            6515                             jmp             KALIB_2k_5
0023C7 8956            6516     KALIB_2k_4:     mov             0x56,R1
0023C9 8A57            6517                             mov             0x57,R2
0023CB 753600          6518                             mov             0x36, #00h
0023CE 753700          6519                             mov             0x37, #00h
0023D1 D200       F    6520     KALIB_2k_5:     setb    BIT_GAIN_2K
0023D3 8003            6521                             jmp             KALIB_5k_0
0023D5 020000     F    6522     KALIB_2k_6:     ljmp    KALIBRIER39
                       6523     
                       6524     
0023D8 D297            6525     KALIB_5k_0:     setb    E
0023DA D293            6526                             setb    S1
0023DC D292            6527                             setb    S2
                       6528                             ;clr            S3
0023DE C297            6529                             clr             E
0023E0 758C00          6530                             mov             TH0, #00h
0023E3 758A00          6531                             mov             TL0, #00h
0023E6 C28D            6532                             clr             TCON_TF0
0023E8 308DFD          6533                             jnb             TCON_TF0, $
0023EB D56A02          6534                             djnz    0x6A, KALIB_5k_1
0023EE 8003            6535                             jmp             KALIB_5k_2
0023F0 020000     F    6536     KALIB_5k_1:     ljmp    KALIB_5k_6
0023F3 756ADD          6537     KALIB_5k_2:     mov             0x6A, #0DDh
0023F6 891B            6538                             mov             0x1B, R1
0023F8 8A1C            6539                             mov             0x1C, R2
AX51 MACRO ASSEMBLER  MESSVERST_NEW                                                         01/07/24 00:14:01 PAGE   105

0023FA 7900            6540                             mov             R1, #00h
0023FC 7A00            6541                             mov             R2, #00h
0023FE 754900          6542                             mov             0x49, #00h
002401 75F002          6543                             mov             B, #2d
002404 C3              6544                             clr             C
002405 E51B            6545                             mov             A, 0x1B
002407 75F002          6546                             mov             B, #2d
00240A 84              6547                             div             AB
00240B F9              6548                             mov             R1, A
00240C E5F0            6549                             mov             A, B
00240E B40103          6550                             cjne    A, #1d, KALIB_5k_3
002411 754980          6551                             mov             0x49, #80h
002414 C3              6552     KALIB_5k_3:     clr             C
002415 E51C            6553                             mov             A, 0x1C
002417 75F002          6554                             mov             B, #2d
00241A 84              6555                             div             AB
00241B C3              6556                             clr             C
00241C 2549            6557                             add             A, 0x49
00241E FA              6558                             mov             R2, A
00241F E4              6559                             clr             A
002420 39              6560                             addc    A, R1
002421 F9              6561                             mov             R1, A
002422 30000C          6562                             jnb             OUTPUT_POSITIV, KALIB_5k_4
002425 8938            6563                             mov             0x38,R1
002427 8A39            6564                             mov             0x39,R2
002429 755800          6565                             mov             0x58, #00h
00242C 755900          6566                             mov             0x59, #00h
00242F 800A            6567                             jmp             KALIB_5k_5
002431 8958            6568     KALIB_5k_4:     mov             0x58,R1
002433 8A59            6569                             mov             0x59,R2
002435 753800          6570                             mov             0x38, #00h
002438 753900          6571                             mov             0x39, #00h
00243B D200       F    6572     KALIB_5k_5:     setb    BIT_GAIN_5K
00243D 8003            6573                             jmp             KALIB_10k_0
00243F 020000     F    6574     KALIB_5k_6:     ljmp    KALIBRIER39
                       6575     
                       6576     
002442 D297            6577     KALIB_10k_0:setb        E
002444 C293            6578                             clr     S1
002446 C292            6579                             clr             S2
                       6580                             ;setb   S3
002448 C297            6581                             clr             E
00244A 758C00          6582                             mov             TH0, #00h
00244D 758A00          6583                             mov             TL0, #00h
002450 C28D            6584                             clr             TCON_TF0
002452 308DFD          6585                             jnb             TCON_TF0, $
002455 D56A02          6586                             djnz    0x6A, KALIB_10k_1
002458 8003            6587                             jmp             KALIB_10k_2
00245A 020000     F    6588     KALIB_10k_1:ljmp        KALIB_10k_6
00245D 756ADD          6589     KALIB_10k_2:mov         0x6A, #0DDh
002460 891B            6590                             mov             0x1B, R1
002462 8A1C            6591                             mov             0x1C, R2
002464 7900            6592                             mov             R1, #00h
002466 7A00            6593                             mov             R2, #00h
002468 754900          6594                             mov             0x49, #00h
00246B 75F002          6595                             mov             B, #2d
00246E C3              6596                             clr             C
00246F E51B            6597                             mov             A, 0x1B
002471 75F002          6598                             mov             B, #2d
002474 84              6599                             div             AB
002475 F9              6600                             mov             R1, A
002476 E5F0            6601                             mov             A, B
002478 B40103          6602                             cjne    A, #1d, KALIB_10k_3
AX51 MACRO ASSEMBLER  MESSVERST_NEW                                                         01/07/24 00:14:01 PAGE   106

00247B 754980          6603                             mov             0x49, #80h
00247E C3              6604     KALIB_10k_3:clr         C
00247F E51C            6605                             mov             A, 0x1C
002481 75F002          6606                             mov             B, #2d
002484 84              6607                             div             AB
002485 C3              6608                             clr             C
002486 2549            6609                             add             A, 0x49
002488 FA              6610                             mov             R2, A
002489 E4              6611                             clr             A
00248A 39              6612                             addc    A, R1
00248B F9              6613                             mov             R1, A
00248C 30000C          6614                             jnb             OUTPUT_POSITIV, KALIB_10k_4
00248F 893A            6615                             mov             0x3A,R1
002491 8A3B            6616                             mov             0x3B,R2
002493 755A00          6617                             mov             0x5A, #00h
002496 755B00          6618                             mov             0x5B, #00h
002499 800A            6619                             jmp             KALIB_10k_5
00249B 895A            6620     KALIB_10k_4:mov         0x5A,R1
00249D 8A5B            6621                             mov             0x5B,R2
00249F 753A00          6622                             mov             0x3A, #00h
0024A2 753B00          6623                             mov             0x3B, #00h
0024A5 D200       F    6624     KALIB_10k_5:setb        BIT_GAIN_10K
0024A7 8003            6625                             jmp             KALIB_25K_0
0024A9 020000     F    6626     KALIB_10k_6:ljmp        KALIBRIER39
                       6627     
                       6628     
0024AC D297            6629     KALIB_25K_0:setb        E
0024AE D293            6630                             setb    S1
0024B0 C292            6631                             clr             S2
                       6632                             ;setb   S3
0024B2 C297            6633                             clr             E
0024B4 758C00          6634                             mov             TH0, #00h
0024B7 758A00          6635                             mov             TL0, #00h
0024BA C28D            6636                             clr             TCON_TF0
0024BC 308DFD          6637                             jnb             TCON_TF0, $
0024BF D56A02          6638                             djnz    0x6A, KALIB_25K_1
0024C2 8003            6639                             jmp             KALIB_25K_2
0024C4 020000     F    6640     KALIB_25K_1:ljmp        KALIB_25K_6
0024C7 756ADD          6641     KALIB_25K_2:mov         0x6A, #0DDh
0024CA 891B            6642                             mov             0x1B, R1
0024CC 8A1C            6643                             mov             0x1C, R2
0024CE 7900            6644                             mov             R1, #00h
0024D0 7A00            6645                             mov             R2, #00h
0024D2 754900          6646                             mov             0x49, #00h
0024D5 75F002          6647                             mov             B, #2d
0024D8 C3              6648                             clr             C
0024D9 E51B            6649                             mov             A, 0x1B
0024DB 75F002          6650                             mov             B, #2d
0024DE 84              6651                             div             AB
0024DF F9              6652                             mov             R1, A
0024E0 E5F0            6653                             mov             A, B
0024E2 B40103          6654                             cjne    A, #1d, KALIB_25K_3
0024E5 754980          6655                             mov             0x49, #80h
0024E8 C3              6656     KALIB_25K_3:clr         C
0024E9 E51C            6657                             mov             A, 0x1C
0024EB 75F002          6658                             mov             B, #2d
0024EE 84              6659                             div             AB
0024EF C3              6660                             clr             C
0024F0 2549            6661                             add             A, 0x49
0024F2 FA              6662                             mov             R2, A
0024F3 E4              6663                             clr             A
0024F4 39              6664                             addc    A, R1
0024F5 F9              6665                             mov             R1, A
AX51 MACRO ASSEMBLER  MESSVERST_NEW                                                         01/07/24 00:14:01 PAGE   107

0024F6 30000C          6666                             jnb             OUTPUT_POSITIV, KALIB_25K_4
0024F9 893C            6667                             mov             0x3C,R1
0024FB 8A3D            6668                             mov             0x3D,R2
0024FD 755C00          6669                             mov             0x5C, #00h
002500 755D00          6670                             mov             0x5D, #00h
002503 800A            6671                             jmp             KALIB_25K_5
002505 895C            6672     KALIB_25K_4:mov         0x5C,R1
002507 8A5D            6673                             mov             0x5D,R2
002509 753C00          6674                             mov             0x3C, #00h
00250C 753D00          6675                             mov             0x3D, #00h
00250F D200       F    6676     KALIB_25K_5:setb        BIT_GAIN_25K
002511 8003            6677                             jmp             KALIB_50K_0
002513 020000     F    6678     KALIB_25K_6:ljmp        KALIBRIER39
                       6679     
                       6680     
002516 D297            6681     KALIB_50K_0:setb        E
002518 C293            6682                             clr     S1
00251A D292            6683                             setb    S2
                       6684                             ;setb   S3
00251C C297            6685                             clr             E
00251E 758C00          6686                             mov             TH0, #00h
002521 758A00          6687                             mov             TL0, #00h
002524 C28D            6688                             clr             TCON_TF0
002526 308DFD          6689                             jnb             TCON_TF0, $
002529 D56A02          6690                             djnz    0x6A, KALIB_50K_1
00252C 8003            6691                             jmp             KALIB_50K_2
00252E 020000     F    6692     KALIB_50K_1:ljmp        KALIB_50K_6
002531 756ADD          6693     KALIB_50K_2:mov         0x6A, #0DDh
002534 891B            6694                             mov             0x1B, R1
002536 8A1C            6695                             mov             0x1C, R2
002538 7900            6696                             mov             R1, #00h
00253A 7A00            6697                             mov             R2, #00h
00253C 754900          6698                             mov             0x49, #00h
00253F 75F002          6699                             mov             B, #2d
002542 C3              6700                             clr             C
002543 E51B            6701                             mov             A, 0x1B
002545 75F002          6702                             mov             B, #2d
002548 84              6703                             div             AB
002549 F9              6704                             mov             R1, A
00254A E5F0            6705                             mov             A, B
00254C B40103          6706                             cjne    A, #1d, KALIB_50K_3
00254F 754980          6707                             mov             0x49, #80h
002552 C3              6708     KALIB_50K_3:clr         C
002553 E51C            6709                             mov             A, 0x1C
002555 75F002          6710                             mov             B, #2d
002558 84              6711                             div             AB
002559 C3              6712                             clr             C
00255A 2549            6713                             add             A, 0x49
00255C FA              6714                             mov             R2, A
00255D E4              6715                             clr             A
00255E 39              6716                             addc    A, R1
00255F F9              6717                             mov             R1, A
002560 30000C          6718                             jnb             OUTPUT_POSITIV, KALIB_50K_4
002563 893E            6719                             mov             0x3E,R1
002565 8A3F            6720                             mov             0x3F,R2
002567 755E00          6721                             mov             0x5E, #00h
00256A 755F00          6722                             mov             0x5F, #00h
00256D 800A            6723                             jmp             KALIB_50K_5
00256F 895E            6724     KALIB_50K_4:mov         0x5E,R1
002571 8A5F            6725                             mov             0x5F,R2
002573 753E00          6726                             mov             0x3E, #00h
002576 753F00          6727                             mov             0x3F, #00h
002579 D200       F    6728     KALIB_50K_5:setb        BIT_GAIN_50K
AX51 MACRO ASSEMBLER  MESSVERST_NEW                                                         01/07/24 00:14:01 PAGE   108

00257B 8003            6729                             jmp             KALIB_60k_0
00257D 020000     F    6730     KALIB_50K_6:ljmp        KALIBRIER39
                       6731     
                       6732     
002580 D297            6733     KALIB_60k_0:setb        E
002582 D293            6734                             setb    S1
002584 D292            6735                             setb    S2
                       6736                             ;setb   S3
002586 C297            6737                             clr             E
002588 758C00          6738                             mov             TH0, #00h
00258B 758A00          6739                             mov             TL0, #00h
00258E C28D            6740                             clr             TCON_TF0
002590 308DFD          6741                             jnb             TCON_TF0, $
002593 D56A02          6742                             djnz    0x6A, KALIB_60k_1
002596 8003            6743                             jmp             KALIB_60k_2
002598 020000     F    6744     KALIB_60k_1:ljmp        KALIB_60k_6
00259B 756ADD          6745     KALIB_60k_2:mov         0x6A, #0DDh
00259E 891B            6746                             mov             0x1B, R1
0025A0 8A1C            6747                             mov             0x1C, R2
0025A2 7900            6748                             mov             R1, #00h
0025A4 7A00            6749                             mov             R2, #00h
0025A6 754900          6750                             mov             0x49, #00h
0025A9 75F002          6751                             mov             B, #2d
0025AC C3              6752                             clr             C
0025AD E51B            6753                             mov             A, 0x1B
0025AF 75F002          6754                             mov             B, #2d
0025B2 84              6755                             div             AB
0025B3 F9              6756                             mov             R1, A
0025B4 E5F0            6757                             mov             A, B
0025B6 B40103          6758                             cjne    A, #1d, KALIB_60k_3
0025B9 754980          6759                             mov             0x49, #80h
0025BC C3              6760     KALIB_60k_3:clr         C
0025BD E51C            6761                             mov             A, 0x1C
0025BF 75F002          6762                             mov             B, #2d
0025C2 84              6763                             div             AB
0025C3 C3              6764                             clr             C
0025C4 2549            6765                             add             A, 0x49
0025C6 FA              6766                             mov             R2, A
0025C7 E4              6767                             clr             A
0025C8 39              6768                             addc    A, R1
0025C9 F9              6769                             mov             R1, A
0025CA 30000C          6770                             jnb             OUTPUT_POSITIV, KALIB_60k_4
0025CD 8940            6771                             mov             0x40,R1
0025CF 8A41            6772                             mov             0x41,R2
0025D1 755000          6773                             mov             0x50, #00h
0025D4 755100          6774                             mov             0x51, #00h
0025D7 800A            6775                             jmp             KALIB_60k_5
0025D9 8950            6776     KALIB_60k_4:mov         0x50,R1
0025DB 8A51            6777                             mov             0x51,R2
0025DD 754000          6778                             mov             0x40, #00h
0025E0 754100          6779                             mov             0x41, #00h
0025E3 D200       F    6780     KALIB_60k_5:setb        BIT_GAIN_60K
0025E5 020000     F    6781     KALIB_60k_6:ljmp        KALIBRIER39
                       6782     
                       6783     
0025E8 758C00          6784     KALIB_end_0:mov         TH0, #00h
0025EB 758A00          6785                             mov             TL0, #00h
0025EE C28D            6786                             clr             TCON_TF0
0025F0 308DFD          6787                             jnb             TCON_TF0, $
0025F3 D56A02          6788                             djnz    0x6A, KALIB_end_1
0025F6 D200       F    6789                             setb    KALIB_end
0025F8 8000            6790     KALIB_end_1:jmp         KALIBRIER39
                       6791     
AX51 MACRO ASSEMBLER  MESSVERST_NEW                                                         01/07/24 00:14:01 PAGE   109

                       6792     
0025FA 0B              6793     KALIBRIER39:inc         R3
0025FB BB3D08          6794                             cjne    R3, #61d, KALIBRIER40
0025FE 300005          6795                             jnb             BIT_GAIN_500, KALIBRIER40
002601 782A            6796                             mov             R0, #2Ah
002603 020000     F    6797                             ljmp    DISPLAY
002606 BB3E08          6798     KALIBRIER40:cjne        R3, #62d, KALIBRIER45
002609 300005          6799                             jnb             BIT_GAIN_500, KALIBRIER45
00260C 782A            6800                             mov             R0, #2Ah
00260E 020000     F    6801                             ljmp    DISPLAY
                       6802     
                       6803     
002611 BB3F08          6804     KALIBRIER45:cjne        R3, #63d, KALIBRIER50
002614 300005          6805                             jnb             BIT_GAIN_1K, KALIBRIER50
002617 782A            6806                             mov             R0, #2Ah
002619 020000     F    6807                             ljmp    DISPLAY
00261C BB4008          6808     KALIBRIER50:cjne        R3, #64d, KALIBRIER55
00261F 300005          6809                             jnb             BIT_GAIN_1K, KALIBRIER55
002622 782A            6810                             mov             R0, #2Ah
002624 020000     F    6811                             ljmp    DISPLAY
                       6812     
                       6813     
002627 BB4108          6814     KALIBRIER55:cjne        R3, #65d, KALIBRIER60
00262A 300005          6815                             jnb             BIT_GAIN_2K, KALIBRIER60
00262D 782A            6816                             mov             R0, #2Ah
00262F 020000     F    6817                             ljmp    DISPLAY
002632 BB4208          6818     KALIBRIER60:cjne        R3, #66d, KALIBRIER65
002635 300005          6819                             jnb             BIT_GAIN_2K, KALIBRIER65
002638 782A            6820                             mov             R0, #2Ah
00263A 020000     F    6821                             ljmp    DISPLAY
                       6822     
                       6823     
00263D BB4308          6824     KALIBRIER65:cjne        R3, #67d, KALIBRIER70
002640 300005          6825                             jnb             BIT_GAIN_5K, KALIBRIER70
002643 782A            6826                             mov             R0, #2Ah
002645 020000     F    6827                             ljmp    DISPLAY
002648 BB4408          6828     KALIBRIER70:cjne        R3, #68d, KALIBRIER75
00264B 300005          6829                             jnb             BIT_GAIN_5K, KALIBRIER75
00264E 782A            6830                             mov             R0, #2Ah
002650 020000     F    6831                             ljmp    DISPLAY
                       6832     
                       6833     
002653 BB4508          6834     KALIBRIER75:cjne        R3, #69d, KALIBRIER80
002656 300005          6835                             jnb             BIT_GAIN_10K, KALIBRIER80
002659 782A            6836                             mov             R0, #2Ah
00265B 020000     F    6837                             ljmp    DISPLAY
00265E BB4608          6838     KALIBRIER80:cjne        R3, #70d, KALIBRIER85
002661 300005          6839                             jnb             BIT_GAIN_10K, KALIBRIER85
002664 782A            6840                             mov             R0, #2Ah
002666 020000     F    6841                             ljmp    DISPLAY
                       6842     
                       6843     
002669 BB4708          6844     KALIBRIER85:cjne        R3, #71d, KALIBRIER90
00266C 300005          6845                             jnb             BIT_GAIN_25K, KALIBRIER90
00266F 782A            6846                             mov             R0, #2Ah
002671 020000     F    6847                             ljmp    DISPLAY
002674 BB4808          6848     KALIBRIER90:cjne        R3, #72d, KALIBRIER95
002677 300005          6849                             jnb             BIT_GAIN_25K, KALIBRIER95
00267A 782A            6850                             mov             R0, #2Ah
00267C 020000     F    6851                             ljmp    DISPLAY
                       6852     
00267F BB4908          6853     KALIBRIER95:cjne        R3, #73d, KALIBRIER100
002682 300005          6854                             jnb             BIT_GAIN_50K, KALIBRIER100
AX51 MACRO ASSEMBLER  MESSVERST_NEW                                                         01/07/24 00:14:01 PAGE   110

002685 782A            6855                             mov             R0, #2Ah
002687 020000     F    6856                             ljmp    DISPLAY
00268A BB4A08          6857     KALIBRIER100:cjne       R3, #74d, KALIBRIER105
00268D 300005          6858                             jnb             BIT_GAIN_50K, KALIBRIER105
002690 782A            6859                             mov             R0, #2Ah
002692 020000     F    6860                             ljmp    DISPLAY
                       6861     
                       6862     
002695 BB4B08          6863     KALIBRIER105:cjne       R3, #75d, KALIBRIER110
002698 300005          6864                             jnb             BIT_GAIN_60K, KALIBRIER110
00269B 782A            6865                             mov             R0, #2Ah
00269D 020000     F    6866                             ljmp    DISPLAY
0026A0 BB4C08          6867     KALIBRIER110:cjne       R3, #76d, KALIBRIER115
0026A3 300005          6868                             jnb             BIT_GAIN_60K, KALIBRIER115
0026A6 782A            6869                             mov             R0, #2Ah
0026A8 020000     F    6870                             ljmp    DISPLAY
0026AB 00              6871     KALIBRIER115:nop
                       6872     
0026AC EB              6873     KALIBRIER165:mov                A, R3
0026AD 1100       F    6874                             call    TAB_KALIBRIER
0026AF F8              6875                             mov             R0, A
0026B0 020000     F    6876                             ljmp    DISPLAY
                       6877     
0026B3 83              6878     TAB_KALIBRIER:movc      A,@A+PC
0026B4 22              6879                             ret
                       6880     
0026B5 20              6881                             DB              20h
0026B6 20              6882                             DB              20h
0026B7 20              6883                             DB              20h
0026B8 41              6884                             DB              41h
0026B9 54              6885                             DB              54h
0026BA 54              6886                             DB              54h
0026BB 45              6887                             DB              45h
0026BC 4E              6888                             DB              4Eh
0026BD 54              6889                             DB              54h
0026BE 49              6890                             DB              49h
0026BF 4F              6891                             DB              4Fh
0026C0 4E              6892                             DB              4Eh
0026C1 21              6893                             DB              21h
0026C2 20              6894                             DB              20h
0026C3 20              6895                             DB              20h
0026C4 20              6896                             DB              20h
                       6897     
0026C5 20              6898                             DB              20h
0026C6 20              6899                             DB              20h
0026C7 20              6900                             DB              20h
0026C8 20              6901                             DB              20h
                       6902     
0026C9 20              6903                             DB              20h
0026CA 46              6904                             DB              46h
0026CB 2E              6905                             DB              2Eh
0026CC 2D              6906                             DB              2Dh
0026CD 43              6907                             DB              43h
0026CE 61              6908                             DB              61h
0026CF 6C              6909                             DB              6Ch
0026D0 69              6910                             DB              69h
0026D1 62              6911                             DB              62h
0026D2 72              6912                             DB              72h
0026D3 61              6913                             DB              61h
0026D4 74              6914                             DB              74h
0026D5 69              6915                             DB              69h
0026D6 6F              6916                             DB              6Fh
0026D7 6E              6917                             DB              6Eh
AX51 MACRO ASSEMBLER  MESSVERST_NEW                                                         01/07/24 00:14:01 PAGE   111

0026D8 20              6918                             DB              20h
                       6919     
                       6920     
0026D9 20              6921                             DB              20h
0026DA 20              6922                             DB              20h
0026DB 20              6923                             DB              20h
0026DC 20              6924                             DB              20h
                       6925     
0026DD 20              6926                             DB              20h
0026DE 70              6927                             DB              70h
0026DF 6C              6928                             DB              6Ch
0026E0 65              6929                             DB              65h
0026E1 61              6930                             DB              61h
0026E2 73              6931                             DB              73h
0026E3 65              6932                             DB              65h
0026E4 20              6933                             DB              20h
0026E5 77              6934                             DB              77h
0026E6 61              6935                             DB              61h
0026E7 69              6936                             DB              69h
0026E8 74              6937                             DB              74h
0026E9 2E              6938                             DB              2Eh
0026EA 2E              6939                             DB              2Eh
0026EB 2E              6940                             DB              2Eh
0026EC 20              6941                             DB              20h
                       6942     
0026ED 20              6943                             DB              20h
0026EE 20              6944                             DB              20h
0026EF 20              6945                             DB              20h
0026F0 20              6946                             DB              20h
                       6947     
0026F1 20              6948                             DB              20h
0026F2 20              6949                             DB              20h
0026F3 20              6950                             DB              20h
0026F4 20              6951                             DB              20h
0026F5 20              6952                             DB              20h
0026F6 20              6953                             DB              20h
0026F7 20              6954                             DB              20h
0026F8 20              6955                             DB              20h
0026F9 20              6956                             DB              20h
0026FA 20              6957                             DB              20h
0026FB 20              6958                             DB              20h
0026FC 20              6959                             DB              20h
0026FD 20              6960                             DB              20h
0026FE 20              6961                             DB              20h
0026FF 20              6962                             DB              20h
002700 20              6963                             DB              20h
002701 22              6964                             ret
                       6965     
                       6966     
                       6967     
002702 04              6968     TAB_HEX:        inc             A
002703 83              6969                             movc    A,@A+PC
002704 22              6970                             ret
002705 30              6971                             DB              30h
002706 31              6972                             DB              31h
002707 32              6973                             DB              32h
002708 33              6974                             DB              33h
002709 34              6975                             DB              34h
00270A 35              6976                             DB              35h
00270B 36              6977                             DB              36h
00270C 37              6978                             DB              37h
00270D 38              6979                             DB              38h
00270E 39              6980                             DB              39h
AX51 MACRO ASSEMBLER  MESSVERST_NEW                                                         01/07/24 00:14:01 PAGE   112

00270F 41              6981                             DB              41h
002710 42              6982                             DB              42h
002711 43              6983                             DB              43h
002712 44              6984                             DB              44h
002713 45              6985                             DB              45h
002714 46              6986                             DB              46h
002715 22              6987                             ret
                       6988     
                       6989     
                       6990     
                       6991     
                       6992     
                       6993     
                       6994     
                       6995     
                       6996     
                       6997     
                       6998     
                       6999     
                       7000     
                       7001     
                       7002     
                       7003     
                       7004     
                       7005     
                       7006     
                       7007     
                       7008     
                       7009     
                       7010     
002716                 7011     KALIBRIEREN_ENDE:
                       7012     
002716 C2AF            7013                             clr             IE_EA
                       7014     
                       7015     
002718 75B7A5          7016                             mov             FLKEY, #0A5h
00271B 75B7F1          7017                             mov             FLKEY, #0F1h
00271E 758F03          7018                             mov             PSCTL, #00000011b
002721 90F910          7019                             MOV     DPTR,#0F910h
002724 E4              7020                             clr             A
002725 F0              7021                             movx    @DPTR, A
002726 758F00          7022                             mov             PSCTL, #00000000b
                       7023     
                       7024     
002729 75B7A5          7025                             mov             FLKEY, #0A5h
00272C 75B7F1          7026                             mov             FLKEY, #0F1h
00272F 758F01          7027                             mov             PSCTL, #00000001b
002732 90F910          7028                             MOV     DPTR,#0F910h
002735 E532            7029                             mov             A, 0x32
002737 F0              7030                             movx    @DPTR, A
002738 758F00          7031                             mov             PSCTL, #00000000b
00273B E4              7032                             clr             A
                       7033     
                       7034     
00273C 75B7A5          7035                             mov             FLKEY, #0A5h
00273F 75B7F1          7036                             mov             FLKEY, #0F1h
002742 758F01          7037                             mov             PSCTL, #00000001b
002745 90F911          7038                             MOV     DPTR,#0F911h
002748 E533            7039                             mov             A, 0x33
00274A F0              7040                             movx    @DPTR, A
00274B 758F00          7041                             mov             PSCTL, #00000000b
00274E E4              7042                             clr             A
                       7043     
AX51 MACRO ASSEMBLER  MESSVERST_NEW                                                         01/07/24 00:14:01 PAGE   113

                       7044     
00274F 75B7A5          7045                             mov             FLKEY, #0A5h
002752 75B7F1          7046                             mov             FLKEY, #0F1h
002755 758F01          7047                             mov             PSCTL, #00000001b
002758 90F912          7048                             MOV     DPTR,#0F912h
00275B E534            7049                             mov             A, 0x34
00275D F0              7050                             movx    @DPTR, A
00275E 758F00          7051                             mov             PSCTL, #00000000b
002761 E4              7052                             clr             A
                       7053     
                       7054     
002762 75B7A5          7055                             mov             FLKEY, #0A5h
002765 75B7F1          7056                             mov             FLKEY, #0F1h
002768 758F01          7057                             mov             PSCTL, #00000001b
00276B 90F913          7058                             MOV     DPTR,#0F913h
00276E E535            7059                             mov             A, 0x35
002770 F0              7060                             movx    @DPTR, A
002771 758F00          7061                             mov             PSCTL, #00000000b
002774 E4              7062                             clr             A
                       7063     
                       7064     
002775 75B7A5          7065                             mov             FLKEY, #0A5h
002778 75B7F1          7066                             mov             FLKEY, #0F1h
00277B 758F01          7067                             mov             PSCTL, #00000001b
00277E 90F914          7068                             MOV     DPTR,#0F914h
002781 E536            7069                             mov             A, 0x36
002783 F0              7070                             movx    @DPTR, A
002784 758F00          7071                             mov             PSCTL, #00000000b
002787 E4              7072                             clr             A
                       7073     
                       7074     
002788 75B7A5          7075                             mov             FLKEY, #0A5h
00278B 75B7F1          7076                             mov             FLKEY, #0F1h
00278E 758F01          7077                             mov             PSCTL, #00000001b
002791 90F915          7078                             MOV     DPTR,#0F915h
002794 E537            7079                             mov             A, 0x37
002796 F0              7080                             movx    @DPTR, A
002797 758F00          7081                             mov             PSCTL, #00000000b
00279A E4              7082                             clr             A
                       7083     
                       7084     
00279B 75B7A5          7085                             mov             FLKEY, #0A5h
00279E 75B7F1          7086                             mov             FLKEY, #0F1h
0027A1 758F01          7087                             mov             PSCTL, #00000001b
0027A4 90F916          7088                             MOV     DPTR,#0F916h
0027A7 E538            7089                             mov             A, 0x38
0027A9 F0              7090                             movx    @DPTR, A
0027AA 758F00          7091                             mov             PSCTL, #00000000b
0027AD E4              7092                             clr             A
                       7093     
                       7094     
0027AE 75B7A5          7095                             mov             FLKEY, #0A5h
0027B1 75B7F1          7096                             mov             FLKEY, #0F1h
0027B4 758F01          7097                             mov             PSCTL, #00000001b
0027B7 90F917          7098                             MOV     DPTR,#0F917h
0027BA E539            7099                             mov             A, 0x39
0027BC F0              7100                             movx    @DPTR, A
0027BD 758F00          7101                             mov             PSCTL, #00000000b
0027C0 E4              7102                             clr             A
                       7103     
                       7104     
0027C1 75B7A5          7105                             mov             FLKEY, #0A5h
0027C4 75B7F1          7106                             mov             FLKEY, #0F1h
AX51 MACRO ASSEMBLER  MESSVERST_NEW                                                         01/07/24 00:14:01 PAGE   114

0027C7 758F01          7107                             mov             PSCTL, #00000001b
0027CA 90F918          7108                             MOV     DPTR,#0F918h
0027CD E53A            7109                             mov             A, 0x3A
0027CF F0              7110                             movx    @DPTR, A
0027D0 758F00          7111                             mov             PSCTL, #00000000b
0027D3 E4              7112                             clr             A
                       7113     
                       7114     
0027D4 75B7A5          7115                             mov             FLKEY, #0A5h
0027D7 75B7F1          7116                             mov             FLKEY, #0F1h
0027DA 758F01          7117                             mov             PSCTL, #00000001b
0027DD 90F919          7118                             MOV     DPTR,#0F919h
0027E0 E53B            7119                             mov             A, 0x3B
0027E2 F0              7120                             movx    @DPTR, A
0027E3 758F00          7121                             mov             PSCTL, #00000000b
0027E6 E4              7122                             clr             A
                       7123     
                       7124     
0027E7 75B7A5          7125                             mov             FLKEY, #0A5h
0027EA 75B7F1          7126                             mov             FLKEY, #0F1h
0027ED 758F01          7127                             mov             PSCTL, #00000001b
0027F0 90F91A          7128                             MOV     DPTR,#0F91Ah
0027F3 E53C            7129                             mov             A, 0x3C
0027F5 F0              7130                             movx    @DPTR, A
0027F6 758F00          7131                             mov             PSCTL, #00000000b
0027F9 E4              7132                             clr             A
                       7133     
                       7134     
0027FA 75B7A5          7135                             mov             FLKEY, #0A5h
0027FD 75B7F1          7136                             mov             FLKEY, #0F1h
002800 758F01          7137                             mov             PSCTL, #00000001b
002803 90F91B          7138                             MOV     DPTR,#0F91Bh
002806 E53D            7139                             mov             A, 0x3D
002808 F0              7140                             movx    @DPTR, A
002809 758F00          7141                             mov             PSCTL, #00000000b
00280C E4              7142                             clr             A
                       7143     
                       7144     
00280D 75B7A5          7145                             mov             FLKEY, #0A5h
002810 75B7F1          7146                             mov             FLKEY, #0F1h
002813 758F01          7147                             mov             PSCTL, #00000001b
002816 90F91C          7148                             MOV     DPTR,#0F91Ch
002819 E53E            7149                             mov             A, 0x3E
00281B F0              7150                             movx    @DPTR, A
00281C 758F00          7151                             mov             PSCTL, #00000000b
00281F E4              7152                             clr             A
                       7153     
                       7154     
002820 75B7A5          7155                             mov             FLKEY, #0A5h
002823 75B7F1          7156                             mov             FLKEY, #0F1h
002826 758F01          7157                             mov             PSCTL, #00000001b
002829 90F91D          7158                             MOV     DPTR,#0F91Dh
00282C E53F            7159                             mov             A, 0x3F
00282E F0              7160                             movx    @DPTR, A
00282F 758F00          7161                             mov             PSCTL, #00000000b
002832 E4              7162                             clr             A
                       7163     
                       7164     
002833 75B7A5          7165                             mov             FLKEY, #0A5h
002836 75B7F1          7166                             mov             FLKEY, #0F1h
002839 758F01          7167                             mov             PSCTL, #00000001b
00283C 90F91E          7168                             MOV     DPTR,#0F91Eh
00283F E540            7169                             mov             A, 0x40
AX51 MACRO ASSEMBLER  MESSVERST_NEW                                                         01/07/24 00:14:01 PAGE   115

002841 F0              7170                             movx    @DPTR, A
002842 758F00          7171                             mov             PSCTL, #00000000b
002845 E4              7172                             clr             A
                       7173     
                       7174     
002846 75B7A5          7175                             mov             FLKEY, #0A5h
002849 75B7F1          7176                             mov             FLKEY, #0F1h
00284C 758F01          7177                             mov             PSCTL, #00000001b
00284F 90F91F          7178                             MOV     DPTR,#0F91Fh
002852 E541            7179                             mov             A, 0x41
002854 F0              7180                             movx    @DPTR, A
002855 758F00          7181                             mov             PSCTL, #00000000b
002858 E4              7182                             clr             A
                       7183     
                       7184     
                       7185     
                       7186     
002859 75B7A5          7187                             mov             FLKEY, #0A5h
00285C 75B7F1          7188                             mov             FLKEY, #0F1h
00285F 758F01          7189                             mov             PSCTL, #00000001b
002862 90F920          7190                             MOV     DPTR,#0F920h
002865 E552            7191                             mov             A, 0x52
002867 F0              7192                             movx    @DPTR, A
002868 758F00          7193                             mov             PSCTL, #00000000b
00286B E4              7194                             clr             A
                       7195     
                       7196     
00286C 75B7A5          7197                             mov             FLKEY, #0A5h
00286F 75B7F1          7198                             mov             FLKEY, #0F1h
002872 758F01          7199                             mov             PSCTL, #00000001b
002875 90F921          7200                             MOV     DPTR,#0F921h
002878 E553            7201                             mov             A, 0x53
00287A F0              7202                             movx    @DPTR, A
00287B 758F00          7203                             mov             PSCTL, #00000000b
00287E E4              7204                             clr             A
                       7205     
                       7206     
00287F 75B7A5          7207                             mov             FLKEY, #0A5h
002882 75B7F1          7208                             mov             FLKEY, #0F1h
002885 758F01          7209                             mov             PSCTL, #00000001b
002888 90F922          7210                             MOV     DPTR,#0F922h
00288B E554            7211                             mov             A, 0x54
00288D F0              7212                             movx    @DPTR, A
00288E 758F00          7213                             mov             PSCTL, #00000000b
002891 E4              7214                             clr             A
                       7215     
                       7216     
002892 75B7A5          7217                             mov             FLKEY, #0A5h
002895 75B7F1          7218                             mov             FLKEY, #0F1h
002898 758F01          7219                             mov             PSCTL, #00000001b
00289B 90F923          7220                             MOV     DPTR,#0F923h
00289E E555            7221                             mov             A, 0x55
0028A0 F0              7222                             movx    @DPTR, A
0028A1 758F00          7223                             mov             PSCTL, #00000000b
0028A4 E4              7224                             clr             A
                       7225     
                       7226     
0028A5 75B7A5          7227                             mov             FLKEY, #0A5h
0028A8 75B7F1          7228                             mov             FLKEY, #0F1h
0028AB 758F01          7229                             mov             PSCTL, #00000001b
0028AE 90F924          7230                             MOV     DPTR,#0F924h
0028B1 E556            7231                             mov             A, 0x56
0028B3 F0              7232                             movx    @DPTR, A
AX51 MACRO ASSEMBLER  MESSVERST_NEW                                                         01/07/24 00:14:01 PAGE   116

0028B4 758F00          7233                             mov             PSCTL, #00000000b
0028B7 E4              7234                             clr             A
                       7235     
                       7236     
0028B8 75B7A5          7237                             mov             FLKEY, #0A5h
0028BB 75B7F1          7238                             mov             FLKEY, #0F1h
0028BE 758F01          7239                             mov             PSCTL, #00000001b
0028C1 90F925          7240                             MOV     DPTR,#0F925h
0028C4 E557            7241                             mov             A, 0x57
0028C6 F0              7242                             movx    @DPTR, A
0028C7 758F00          7243                             mov             PSCTL, #00000000b
0028CA E4              7244                             clr             A
                       7245     
                       7246     
0028CB 75B7A5          7247                             mov             FLKEY, #0A5h
0028CE 75B7F1          7248                             mov             FLKEY, #0F1h
0028D1 758F01          7249                             mov             PSCTL, #00000001b
0028D4 90F926          7250                             MOV     DPTR,#0F926h
0028D7 E558            7251                             mov             A, 0x58
0028D9 F0              7252                             movx    @DPTR, A
0028DA 758F00          7253                             mov             PSCTL, #00000000b
0028DD E4              7254                             clr             A
                       7255     
                       7256     
0028DE 75B7A5          7257                             mov             FLKEY, #0A5h
0028E1 75B7F1          7258                             mov             FLKEY, #0F1h
0028E4 758F01          7259                             mov             PSCTL, #00000001b
0028E7 90F927          7260                             MOV     DPTR,#0F927h
0028EA E559            7261                             mov             A, 0x59
0028EC F0              7262                             movx    @DPTR, A
0028ED 758F00          7263                             mov             PSCTL, #00000000b
0028F0 E4              7264                             clr             A
                       7265     
                       7266     
0028F1 75B7A5          7267                             mov             FLKEY, #0A5h
0028F4 75B7F1          7268                             mov             FLKEY, #0F1h
0028F7 758F01          7269                             mov             PSCTL, #00000001b
0028FA 90F928          7270                             MOV     DPTR,#0F928h
0028FD E55A            7271                             mov             A, 0x5A
0028FF F0              7272                             movx    @DPTR, A
002900 758F00          7273                             mov             PSCTL, #00000000b
002903 E4              7274                             clr             A
                       7275     
                       7276     
002904 75B7A5          7277                             mov             FLKEY, #0A5h
002907 75B7F1          7278                             mov             FLKEY, #0F1h
00290A 758F01          7279                             mov             PSCTL, #00000001b
00290D 90F929          7280                             MOV     DPTR,#0F929h
002910 E55B            7281                             mov             A, 0x5B
002912 F0              7282                             movx    @DPTR, A
002913 758F00          7283                             mov             PSCTL, #00000000b
002916 E4              7284                             clr             A
                       7285     
                       7286     
002917 75B7A5          7287                             mov             FLKEY, #0A5h
00291A 75B7F1          7288                             mov             FLKEY, #0F1h
00291D 758F01          7289                             mov             PSCTL, #00000001b
002920 90F92A          7290                             MOV     DPTR,#0F92Ah
002923 E55C            7291                             mov             A, 0x5C
002925 F0              7292                             movx    @DPTR, A
002926 758F00          7293                             mov             PSCTL, #00000000b
002929 E4              7294                             clr             A
                       7295     
AX51 MACRO ASSEMBLER  MESSVERST_NEW                                                         01/07/24 00:14:01 PAGE   117

                       7296     
00292A 75B7A5          7297                             mov             FLKEY, #0A5h
00292D 75B7F1          7298                             mov             FLKEY, #0F1h
002930 758F01          7299                             mov             PSCTL, #00000001b
002933 90F92B          7300                             MOV     DPTR,#0F92Bh
002936 E55D            7301                             mov             A, 0x5D
002938 F0              7302                             movx    @DPTR, A
002939 758F00          7303                             mov             PSCTL, #00000000b
00293C E4              7304                             clr             A
                       7305     
                       7306     
00293D 75B7A5          7307                             mov             FLKEY, #0A5h
002940 75B7F1          7308                             mov             FLKEY, #0F1h
002943 758F01          7309                             mov             PSCTL, #00000001b
002946 90F92C          7310                             MOV     DPTR,#0F92Ch
002949 E55E            7311                             mov             A, 0x5E
00294B F0              7312                             movx    @DPTR, A
00294C 758F00          7313                             mov             PSCTL, #00000000b
00294F E4              7314                             clr             A
                       7315     
                       7316     
002950 75B7A5          7317                             mov             FLKEY, #0A5h
002953 75B7F1          7318                             mov             FLKEY, #0F1h
002956 758F01          7319                             mov             PSCTL, #00000001b
002959 90F92D          7320                             MOV     DPTR,#0F92Dh
00295C E55F            7321                             mov             A, 0x5F
00295E F0              7322                             movx    @DPTR, A
00295F 758F00          7323                             mov             PSCTL, #00000000b
002962 E4              7324                             clr             A
                       7325     
                       7326     
002963 75B7A5          7327                             mov             FLKEY, #0A5h
002966 75B7F1          7328                             mov             FLKEY, #0F1h
002969 758F01          7329                             mov             PSCTL, #00000001b
00296C 90F92E          7330                             MOV     DPTR,#0F92Eh
00296F E550            7331                             mov             A, 0x50
002971 F0              7332                             movx    @DPTR, A
002972 758F00          7333                             mov             PSCTL, #00000000b
002975 E4              7334                             clr             A
                       7335     
                       7336     
002976 75B7A5          7337                             mov             FLKEY, #0A5h
002979 75B7F1          7338                             mov             FLKEY, #0F1h
00297C 758F01          7339                             mov             PSCTL, #00000001b
00297F 90F92F          7340                             MOV     DPTR,#0F92Fh
002982 E551            7341                             mov             A, 0x51
002984 F0              7342                             movx    @DPTR, A
002985 758F00          7343                             mov             PSCTL, #00000000b
002988 E4              7344                             clr             A
                       7345     
                       7346     
002989 D200       F    7347                             setb    settings_saved
00298B D200       F    7348                             setb    display_clr
00298D 7B00            7349                             mov             R3, #00h
00298F D2AF            7350                             setb    IE_EA
002991 020000     F    7351                             ljmp    DISPLAY
                       7352     
002994 BB4C14          7353     saved_0:        cjne    R3, #76d, saved_1
                       7354     
002997 D2A4            7355                             setb    LED_GREEN
002999 C2A5            7356                             clr             LED_RED
00299B C2A6            7357                             clr             LED_WHITE
00299D C200       F    7358                             clr             Kalibrieren
AX51 MACRO ASSEMBLER  MESSVERST_NEW                                                         01/07/24 00:14:01 PAGE   118

00299F 75B1FF          7359                             mov             LFO0CN, #0FFh
0029A2 7597A5          7360                             mov             WDTCN, #0A5h
0029A5 759706          7361                             mov             WDTCN, #06h
0029A8 80FE            7362                             jmp             $
0029AA 00              7363                             nop
                       7364     
                       7365     
0029AB 0B              7366     saved_1:        inc             R3
0029AC EB              7367                             mov             A, R3
0029AD 1100       F    7368                             call    TAB_saved
0029AF F8              7369                             mov             R0, A
0029B0 020000     F    7370                             ljmp    DISPLAY
                       7371     
0029B3 83              7372     TAB_saved:      movc    A,@A+PC
0029B4 22              7373                             ret
                       7374     
0029B5 20              7375                             DB              20h
0029B6 20              7376                             DB              20h
0029B7 56              7377                             DB              56h
0029B8 61              7378                             DB              61h
0029B9 6C              7379                             DB              6Ch
0029BA 75              7380                             DB              75h
0029BB 65              7381                             DB              65h
0029BC 73              7382                             DB              73h
0029BD 20              7383                             DB              20h
0029BE 73              7384                             DB              73h
0029BF 61              7385                             DB              61h
0029C0 76              7386                             DB              76h
0029C1 65              7387                             DB              65h
0029C2 64              7388                             DB              64h
0029C3 20              7389                             DB              20h
0029C4 20              7390                             DB              20h
                       7391     
                       7392     
0029C5 20              7393                             DB              20h
0029C6 20              7394                             DB              20h
0029C7 20              7395                             DB              20h
0029C8 20              7396                             DB              20h
                       7397     
0029C9 20              7398                             DB              20h
0029CA 20              7399                             DB              20h
0029CB 73              7400                             DB              73h
0029CC 75              7401                             DB              75h
0029CD 63              7402                             DB              63h
0029CE 63              7403                             DB              63h
0029CF 65              7404                             DB              65h
0029D0 73              7405                             DB              73h
0029D1 73              7406                             DB              73h
0029D2 66              7407                             DB              66h
0029D3 75              7408                             DB              75h
0029D4 6C              7409                             DB              6Ch
0029D5 6C              7410                             DB              6Ch
0029D6 79              7411                             DB              79h
0029D7 20              7412                             DB              20h
0029D8 20              7413                             DB              20h
                       7414     
0029D9 20              7415                             DB              20h
0029DA 20              7416                             DB              20h
0029DB 20              7417                             DB              20h
0029DC 20              7418                             DB              20h
                       7419     
0029DD 20              7420                             DB              20h
0029DE 20              7421                             DB              20h
AX51 MACRO ASSEMBLER  MESSVERST_NEW                                                         01/07/24 00:14:01 PAGE   119

0029DF 20              7422                             DB              20h
0029E0 20              7423                             DB              20h
0029E1 20              7424                             DB              20h
0029E2 20              7425                             DB              20h
0029E3 20              7426                             DB              20h
0029E4 20              7427                             DB              20h
0029E5 20              7428                             DB              20h
0029E6 20              7429                             DB              20h
0029E7 20              7430                             DB              20h
0029E8 20              7431                             DB              20h
0029E9 20              7432                             DB              20h
0029EA 20              7433                             DB              20h
0029EB 20              7434                             DB              20h
0029EC 20              7435                             DB              20h
                       7436     
0029ED 20              7437                             DB              20h
0029EE 20              7438                             DB              20h
0029EF 20              7439                             DB              20h
0029F0 20              7440                             DB              20h
                       7441     
0029F1 72              7442                             DB              72h
0029F2 65              7443                             DB              65h
0029F3 73              7444                             DB              73h
0029F4 74              7445                             DB              74h
0029F5 61              7446                             DB              61h
0029F6 72              7447                             DB              72h
0029F7 74              7448                             DB              74h
0029F8 69              7449                             DB              69h
0029F9 6E              7450                             DB              6Eh
0029FA 67              7451                             DB              67h
0029FB 2E              7452                             DB              2Eh
0029FC 2E              7453                             DB              2Eh
0029FD 2E              7454                             DB              2Eh
0029FE 20              7455                             DB              20h
0029FF 20              7456                             DB              20h
002A00 20              7457                             DB              20h
002A01 22              7458                             ret
                       7459     
                       7460     
                       7461     
002A02 BB4C08          7462     ERROR1:         cjne    R3, #76d, ERROR3
002A05 C2A4            7463                             clr             LED_GREEN
002A07 D2A5            7464                             setb    LED_RED
002A09 C2A6            7465                             clr             LED_WHITE
002A0B 80FE            7466                             jmp             $
                       7467     
002A0D 75A8C0          7468     ERROR3:         mov             IE, #0C0h
002A10 0B              7469                             inc             R3
002A11 EB              7470                             mov             A, R3
002A12 1100       F    7471                             call    TAB_ERROR
002A14 F8              7472                             mov             R0, A
002A15 020000     F    7473                             jmp             DISPLAY
                       7474     
002A18 83              7475     TAB_ERROR:      movc    A,@A+PC
002A19 22              7476                             ret
                       7477     
002A1A 20              7478                             DB              20h
002A1B 20              7479                             DB              20h
002A1C 46              7480                             DB              46h
002A1D 41              7481                             DB              41h
002A1E 54              7482                             DB              54h
002A1F 41              7483                             DB              41h
002A20 4C              7484                             DB              4Ch
AX51 MACRO ASSEMBLER  MESSVERST_NEW                                                         01/07/24 00:14:01 PAGE   120

002A21 20              7485                             DB              20h
002A22 45              7486                             DB              45h
002A23 52              7487                             DB              52h
002A24 52              7488                             DB              52h
002A25 4F              7489                             DB              4Fh
002A26 52              7490                             DB              52h
002A27 21              7491                             DB              21h
002A28 20              7492                             DB              20h
002A29 20              7493                             DB              20h
                       7494     
002A2A 20              7495                             DB              20h
002A2B 20              7496                             DB              20h
002A2C 20              7497                             DB              20h
002A2D 20              7498                             DB              20h
                       7499     
002A2E 70              7500                             DB              70h
002A2F 6C              7501                             DB              6Ch
002A30 65              7502                             DB              65h
002A31 61              7503                             DB              61h
002A32 73              7504                             DB              73h
002A33 65              7505                             DB              65h
002A34 20              7506                             DB              20h
002A35 63              7507                             DB              63h
002A36 6F              7508                             DB              6Fh
002A37 6E              7509                             DB              6Eh
002A38 74              7510                             DB              74h
002A39 61              7511                             DB              61h
002A3A 63              7512                             DB              63h
002A3B 74              7513                             DB              74h
002A3C 3A              7514                             DB              3Ah
002A3D 20              7515                             DB              20h
                       7516     
002A3E 20              7517                             DB              20h
002A3F 20              7518                             DB              20h
002A40 20              7519                             DB              20h
002A41 20              7520                             DB              20h
                       7521     
002A42 69              7522                             DB              69h
002A43 6E              7523                             DB              6Eh
002A44 66              7524                             DB              66h
002A45 6F              7525                             DB              6Fh
002A46 40              7526                             DB              40h
002A47 76              7527                             DB              76h
002A48 65              7528                             DB              65h
002A49 63              7529                             DB              63h
002A4A 74              7530                             DB              74h
002A4B 6F              7531                             DB              6Fh
002A4C 72              7532                             DB              72h
002A4D 66              7533                             DB              66h
002A4E 6F              7534                             DB              6Fh
002A4F 72              7535                             DB              72h
002A50 63              7536                             DB              63h
002A51 65              7537                             DB              65h
                       7538     
002A52 20              7539                             DB              20h
002A53 20              7540                             DB              20h
002A54 20              7541                             DB              20h
002A55 20              7542                             DB              20h
                       7543     
002A56 2E              7544                             DB              2Eh
002A57 64              7545                             DB              64h
002A58 65              7546                             DB              65h
002A59 20              7547                             DB              20h
AX51 MACRO ASSEMBLER  MESSVERST_NEW                                                         01/07/24 00:14:01 PAGE   121

002A5A 20              7548                             DB              20h
002A5B 20              7549                             DB              20h
002A5C 20              7550                             DB              20h
002A5D 20              7551                             DB              20h
002A5E 20              7552                             DB              20h
002A5F 20              7553                             DB              20h
002A60 20              7554                             DB              20h
002A61 20              7555                             DB              20h
002A62 20              7556                             DB              20h
002A63 20              7557                             DB              20h
002A64 20              7558                             DB              20h
002A65 20              7559                             DB              20h
002A66 22              7560                             ret
                       7561     
                       7562     
                       7563     END
AX51 MACRO ASSEMBLER  MESSVERST_NEW                                                         01/07/24 00:14:01 PAGE   122

SYMBOL TABLE LISTING
------ ----- -------


N A M E                              T Y P E  V A L U E     ATTRIBUTES

ACC . . . . . . . . . . . . . . . .  D  ADDR  00E0H     A   
ACC_ACC0. . . . . . . . . . . . . .  B  ADDR  00E0H.0   A   
ACC_ACC1. . . . . . . . . . . . . .  B  ADDR  00E0H.1   A   
ACC_ACC2. . . . . . . . . . . . . .  B  ADDR  00E0H.2   A   
ACC_ACC3. . . . . . . . . . . . . .  B  ADDR  00E0H.3   A   
ACC_ACC4. . . . . . . . . . . . . .  B  ADDR  00E0H.4   A   
ACC_ACC5. . . . . . . . . . . . . .  B  ADDR  00E0H.5   A   
ACC_ACC6. . . . . . . . . . . . . .  B  ADDR  00E0H.6   A   
ACC_ACC7. . . . . . . . . . . . . .  B  ADDR  00E0H.7   A   
ADC0. . . . . . . . . . . . . . . .  D  ADDR  00BDH     A   
ADC0ASA . . . . . . . . . . . . . .  D  ADDR  00B5H     A   
ADC0ASAH. . . . . . . . . . . . . .  D  ADDR  00B6H     A   
ADC0ASAL. . . . . . . . . . . . . .  D  ADDR  00B5H     A   
ADC0ASCF. . . . . . . . . . . . . .  D  ADDR  00A1H     A   
ADC0ASCT. . . . . . . . . . . . . .  D  ADDR  00C7H     A   
ADC0CF0 . . . . . . . . . . . . . .  D  ADDR  00BCH     A   
ADC0CF1 . . . . . . . . . . . . . .  D  ADDR  00B9H     A   
ADC0CF2 . . . . . . . . . . . . . .  D  ADDR  00DFH     A   
ADC0CN0 . . . . . . . . . . . . . .  D  ADDR  00E8H     A   
ADC0CN0_ADBUSY. . . . . . . . . . .  B  ADDR  00E8H.4   A   
ADC0CN0_ADEN. . . . . . . . . . . .  B  ADDR  00E8H.7   A   
ADC0CN0_ADGN0 . . . . . . . . . . .  B  ADDR  00E8H.1   A   
ADC0CN0_ADGN1 . . . . . . . . . . .  B  ADDR  00E8H.2   A   
ADC0CN0_ADINT . . . . . . . . . . .  B  ADDR  00E8H.5   A   
ADC0CN0_ADWINT. . . . . . . . . . .  B  ADDR  00E8H.3   A   
ADC0CN0_IPOEN . . . . . . . . . . .  B  ADDR  00E8H.6   A   
ADC0CN0_TEMPE . . . . . . . . . . .  B  ADDR  00E8H.0   A   
ADC0CN1 . . . . . . . . . . . . . .  D  ADDR  00B2H     A   
ADC0CN2 . . . . . . . . . . . . . .  D  ADDR  00B3H     A   
ADC0EOC_IRQN. . . . . . . . . . . .  N  NUMB  000AH     A   
ADC0GT. . . . . . . . . . . . . . .  D  ADDR  00C3H     A   
ADC0GTH . . . . . . . . . . . . . .  D  ADDR  00C4H     A   
ADC0GTL . . . . . . . . . . . . . .  D  ADDR  00C3H     A   
ADC0H . . . . . . . . . . . . . . .  D  ADDR  00BEH     A   
ADC0L . . . . . . . . . . . . . . .  D  ADDR  00BDH     A   
ADC0LT. . . . . . . . . . . . . . .  D  ADDR  00C5H     A   
ADC0LTH . . . . . . . . . . . . . .  D  ADDR  00C6H     A   
ADC0LTL . . . . . . . . . . . . . .  D  ADDR  00C5H     A   
ADC0MX. . . . . . . . . . . . . . .  D  ADDR  00BBH     A   
ADC0WC_IRQN . . . . . . . . . . . .  N  NUMB  0009H     A   
ADC_1 . . . . . . . . . . . . . . .  C  ADDR  043AH     R   SEG=?CO?MESSVERST_NEW?2
ADC_END . . . . . . . . . . . . . .  C  ADDR  0444H     R   SEG=?CO?MESSVERST_NEW?2
ADC_LP_FILTER . . . . . . . . . . .  B  ADDR  00A0H.2   A   
ADC_MESSEN. . . . . . . . . . . . .  B  ADDR  0009H.0   R   SEG=FLAGS2
ADC_NEG . . . . . . . . . . . . . .  B  ADDR  0000H.3   R   SEG=FLAGS2
ADC_OV. . . . . . . . . . . . . . .  B  ADDR  0080H.1   A   
ADC_POS . . . . . . . . . . . . . .  B  ADDR  0000H.2   R   SEG=FLAGS2
ADC_UV. . . . . . . . . . . . . . .  B  ADDR  0080H.2   A   
ADC_WARTEN. . . . . . . . . . . . .  B  ADDR  0000H.4   R   SEG=FLAGS2
ADC_WC_SET. . . . . . . . . . . . .  B  ADDR  0006H.1   R   SEG=FLAGS2
ADC_WINDOW. . . . . . . . . . . . .  C  ADDR  042DH     R   SEG=?CO?MESSVERST_NEW?2
AUTO_ZERO_ON. . . . . . . . . . . .  B  ADDR  0000H.1   R   SEG=FLAGS2
AUTOZ_IN. . . . . . . . . . . . . .  B  ADDR  0080H.3   A   
AUTOZERO. . . . . . . . . . . . . .  C  ADDR  0A84H     R   SEG=?CO?MESSVERST_NEW?2
AUTOZERO_1. . . . . . . . . . . . .  C  ADDR  0A8AH     R   SEG=?CO?MESSVERST_NEW?2
AUTOZERO_2. . . . . . . . . . . . .  C  ADDR  0A9CH     R   SEG=?CO?MESSVERST_NEW?2
AUTOZERO_3. . . . . . . . . . . . .  C  ADDR  0AA4H     R   SEG=?CO?MESSVERST_NEW?2
AX51 MACRO ASSEMBLER  MESSVERST_NEW                                                         01/07/24 00:14:01 PAGE   123

AUTOZERO_4. . . . . . . . . . . . .  C  ADDR  0AB1H     R   SEG=?CO?MESSVERST_NEW?2
B . . . . . . . . . . . . . . . . .  D  ADDR  00F0H     A   
B_B0. . . . . . . . . . . . . . . .  B  ADDR  00F0H.0   A   
B_B1. . . . . . . . . . . . . . . .  B  ADDR  00F0H.1   A   
B_B2. . . . . . . . . . . . . . . .  B  ADDR  00F0H.2   A   
B_B3. . . . . . . . . . . . . . . .  B  ADDR  00F0H.3   A   
B_B4. . . . . . . . . . . . . . . .  B  ADDR  00F0H.4   A   
B_B5. . . . . . . . . . . . . . . .  B  ADDR  00F0H.5   A   
B_B6. . . . . . . . . . . . . . . .  B  ADDR  00F0H.6   A   
B_B7. . . . . . . . . . . . . . . .  B  ADDR  00F0H.7   A   
BETRIEB . . . . . . . . . . . . . .  C  ADDR  144BH     R   SEG=?CO?MESSVERST_NEW?2
BETRIEB1. . . . . . . . . . . . . .  C  ADDR  144DH     R   SEG=?CO?MESSVERST_NEW?2
BETRIEB10 . . . . . . . . . . . . .  C  ADDR  14B9H     R   SEG=?CO?MESSVERST_NEW?2
BETRIEB100. . . . . . . . . . . . .  C  ADDR  150EH     R   SEG=?CO?MESSVERST_NEW?2
BETRIEB101. . . . . . . . . . . . .  C  ADDR  1514H     R   SEG=?CO?MESSVERST_NEW?2
BETRIEB102. . . . . . . . . . . . .  C  ADDR  1516H     R   SEG=?CO?MESSVERST_NEW?2
BETRIEB103. . . . . . . . . . . . .  C  ADDR  1533H     R   SEG=?CO?MESSVERST_NEW?2
BETRIEB104. . . . . . . . . . . . .  C  ADDR  153BH     R   SEG=?CO?MESSVERST_NEW?2
BETRIEB11 . . . . . . . . . . . . .  C  ADDR  14C5H     R   SEG=?CO?MESSVERST_NEW?2
BETRIEB12 . . . . . . . . . . . . .  C  ADDR  14CBH     R   SEG=?CO?MESSVERST_NEW?2
BETRIEB13 . . . . . . . . . . . . .  C  ADDR  14D1H     R   SEG=?CO?MESSVERST_NEW?2
BETRIEB14 . . . . . . . . . . . . .  C  ADDR  14D7H     R   SEG=?CO?MESSVERST_NEW?2
BETRIEB15 . . . . . . . . . . . . .  C  ADDR  14DDH     R   SEG=?CO?MESSVERST_NEW?2
BETRIEB16 . . . . . . . . . . . . .  C  ADDR  14E3H     R   SEG=?CO?MESSVERST_NEW?2
BETRIEB17 . . . . . . . . . . . . .  C  ADDR  14E9H     R   SEG=?CO?MESSVERST_NEW?2
BETRIEB18 . . . . . . . . . . . . .  C  ADDR  14EFH     R   SEG=?CO?MESSVERST_NEW?2
BETRIEB2. . . . . . . . . . . . . .  C  ADDR  1459H     R   SEG=?CO?MESSVERST_NEW?2
BETRIEB20 . . . . . . . . . . . . .  C  ADDR  14F5H     R   SEG=?CO?MESSVERST_NEW?2
BETRIEB21 . . . . . . . . . . . . .  C  ADDR  14FCH     R   SEG=?CO?MESSVERST_NEW?2
BETRIEB21_1 . . . . . . . . . . . .  C  ADDR  1505H     R   SEG=?CO?MESSVERST_NEW?2
BETRIEB22 . . . . . . . . . . . . .  C  ADDR  1508H     R   SEG=?CO?MESSVERST_NEW?2
BETRIEB23 . . . . . . . . . . . . .  C  ADDR  150BH     R   SEG=?CO?MESSVERST_NEW?2
BETRIEB3. . . . . . . . . . . . . .  C  ADDR  146BH     R   SEG=?CO?MESSVERST_NEW?2
BETRIEB3_1. . . . . . . . . . . . .  C  ADDR  146EH     R   SEG=?CO?MESSVERST_NEW?2
BETRIEB3_2. . . . . . . . . . . . .  C  ADDR  1471H     R   SEG=?CO?MESSVERST_NEW?2
BETRIEB3_3. . . . . . . . . . . . .  C  ADDR  1474H     R   SEG=?CO?MESSVERST_NEW?2
BETRIEB3_4. . . . . . . . . . . . .  C  ADDR  1477H     R   SEG=?CO?MESSVERST_NEW?2
BETRIEB5. . . . . . . . . . . . . .  C  ADDR  147AH     R   SEG=?CO?MESSVERST_NEW?2
BETRIEB6. . . . . . . . . . . . . .  C  ADDR  1486H     R   SEG=?CO?MESSVERST_NEW?2
BETRIEB6_1. . . . . . . . . . . . .  C  ADDR  1492H     R   SEG=?CO?MESSVERST_NEW?2
BETRIEB7. . . . . . . . . . . . . .  C  ADDR  1495H     R   SEG=?CO?MESSVERST_NEW?2
BETRIEB7_1. . . . . . . . . . . . .  C  ADDR  14A1H     R   SEG=?CO?MESSVERST_NEW?2
BETRIEB8. . . . . . . . . . . . . .  C  ADDR  14A4H     R   SEG=?CO?MESSVERST_NEW?2
BETRIEB800. . . . . . . . . . . . .  C  ADDR  153EH     R   SEG=?CO?MESSVERST_NEW?2
BETRIEB801. . . . . . . . . . . . .  C  ADDR  155DH     R   SEG=?CO?MESSVERST_NEW?2
BETRIEB802. . . . . . . . . . . . .  C  ADDR  157CH     R   SEG=?CO?MESSVERST_NEW?2
BETRIEB803. . . . . . . . . . . . .  C  ADDR  159BH     R   SEG=?CO?MESSVERST_NEW?2
BETRIEB804. . . . . . . . . . . . .  C  ADDR  15BAH     R   SEG=?CO?MESSVERST_NEW?2
BETRIEB810. . . . . . . . . . . . .  C  ADDR  15D9H     R   SEG=?CO?MESSVERST_NEW?2
BETRIEB820. . . . . . . . . . . . .  C  ADDR  15F8H     R   SEG=?CO?MESSVERST_NEW?2
BETRIEB830. . . . . . . . . . . . .  C  ADDR  1617H     R   SEG=?CO?MESSVERST_NEW?2
BETRIEB831. . . . . . . . . . . . .  C  ADDR  1636H     R   SEG=?CO?MESSVERST_NEW?2
BETRIEB832. . . . . . . . . . . . .  C  ADDR  1655H     R   SEG=?CO?MESSVERST_NEW?2
BETRIEB833. . . . . . . . . . . . .  C  ADDR  1674H     R   SEG=?CO?MESSVERST_NEW?2
BETRIEB834. . . . . . . . . . . . .  C  ADDR  1693H     R   SEG=?CO?MESSVERST_NEW?2
BETRIEB835. . . . . . . . . . . . .  C  ADDR  16B2H     R   SEG=?CO?MESSVERST_NEW?2
BETRIEB835_1. . . . . . . . . . . .  C  ADDR  16C0H     R   SEG=?CO?MESSVERST_NEW?2
BETRIEB836. . . . . . . . . . . . .  C  ADDR  16DEH     R   SEG=?CO?MESSVERST_NEW?2
BETRIEB837. . . . . . . . . . . . .  C  ADDR  16FDH     R   SEG=?CO?MESSVERST_NEW?2
BETRIEB840. . . . . . . . . . . . .  C  ADDR  171CH     R   SEG=?CO?MESSVERST_NEW?2
BETRIEB850. . . . . . . . . . . . .  C  ADDR  1737H     R   SEG=?CO?MESSVERST_NEW?2
BETRIEB860. . . . . . . . . . . . .  C  ADDR  1752H     R   SEG=?CO?MESSVERST_NEW?2
BETRIEB861. . . . . . . . . . . . .  C  ADDR  175FH     R   SEG=?CO?MESSVERST_NEW?2
AX51 MACRO ASSEMBLER  MESSVERST_NEW                                                         01/07/24 00:14:01 PAGE   124

BETRIEB862. . . . . . . . . . . . .  C  ADDR  177DH     R   SEG=?CO?MESSVERST_NEW?2
BETRIEB863. . . . . . . . . . . . .  C  ADDR  1782H     R   SEG=?CO?MESSVERST_NEW?2
BETRIEB863_1. . . . . . . . . . . .  C  ADDR  178EH     R   SEG=?CO?MESSVERST_NEW?2
BETRIEB864. . . . . . . . . . . . .  C  ADDR  1792H     R   SEG=?CO?MESSVERST_NEW?2
BETRIEB865. . . . . . . . . . . . .  C  ADDR  179BH     R   SEG=?CO?MESSVERST_NEW?2
BETRIEB866. . . . . . . . . . . . .  C  ADDR  17A4H     R   SEG=?CO?MESSVERST_NEW?2
BETRIEB867. . . . . . . . . . . . .  C  ADDR  17ADH     R   SEG=?CO?MESSVERST_NEW?2
BETRIEB868. . . . . . . . . . . . .  C  ADDR  17B6H     R   SEG=?CO?MESSVERST_NEW?2
BETRIEB869. . . . . . . . . . . . .  C  ADDR  17B8H     R   SEG=?CO?MESSVERST_NEW?2
BETRIEB8_1. . . . . . . . . . . . .  C  ADDR  14ADH     R   SEG=?CO?MESSVERST_NEW?2
BETRIEB8_2. . . . . . . . . . . . .  C  ADDR  14B0H     R   SEG=?CO?MESSVERST_NEW?2
BETRIEB8_3. . . . . . . . . . . . .  C  ADDR  14B3H     R   SEG=?CO?MESSVERST_NEW?2
BETRIEB8_4. . . . . . . . . . . . .  C  ADDR  14B6H     R   SEG=?CO?MESSVERST_NEW?2
BIT_AUTOZ . . . . . . . . . . . . .  B  ADDR  0001H.4   R   SEG=FLAGS2
BIT_GAIN_10K. . . . . . . . . . . .  B  ADDR  0005H.0   R   SEG=FLAGS2
BIT_GAIN_1K . . . . . . . . . . . .  B  ADDR  0004H.5   R   SEG=FLAGS2
BIT_GAIN_25K. . . . . . . . . . . .  B  ADDR  0005H.1   R   SEG=FLAGS2
BIT_GAIN_2K . . . . . . . . . . . .  B  ADDR  0004H.6   R   SEG=FLAGS2
BIT_GAIN_500. . . . . . . . . . . .  B  ADDR  0004H.4   R   SEG=FLAGS2
BIT_GAIN_50K. . . . . . . . . . . .  B  ADDR  0005H.2   R   SEG=FLAGS2
BIT_GAIN_5K . . . . . . . . . . . .  B  ADDR  0004H.7   R   SEG=FLAGS2
BIT_GAIN_60K. . . . . . . . . . . .  B  ADDR  0005H.3   R   SEG=FLAGS2
BIT_OVERRANGE . . . . . . . . . . .  B  ADDR  0001H.3   R   SEG=FLAGS2
BIT_OVERVOLT. . . . . . . . . . . .  B  ADDR  0001H.2   R   SEG=FLAGS2
BLINK_LCD . . . . . . . . . . . . .  B  ADDR  0006H.2   R   SEG=FLAGS2
BOOTSCREEN_LOADING. . . . . . . . .  B  ADDR  0006H.5   R   SEG=FLAGS2
BOOTSCREEN_OK . . . . . . . . . . .  B  ADDR  0002H.6   R   SEG=FLAGS2
CKCON0. . . . . . . . . . . . . . .  D  ADDR  008EH     A   
CKCON1. . . . . . . . . . . . . . .  D  ADDR  00A6H     A   
CL0_IRQN. . . . . . . . . . . . . .  N  NUMB  0013H     A   
CLEN0 . . . . . . . . . . . . . . .  D  ADDR  00C6H     A   
CLIE0 . . . . . . . . . . . . . . .  D  ADDR  00C7H     A   
CLIF0 . . . . . . . . . . . . . . .  D  ADDR  00E8H     A   
CLIF0_C0FIF . . . . . . . . . . . .  B  ADDR  00E8H.0   A   
CLIF0_C0RIF . . . . . . . . . . . .  B  ADDR  00E8H.1   A   
CLIF0_C1FIF . . . . . . . . . . . .  B  ADDR  00E8H.2   A   
CLIF0_C1RIF . . . . . . . . . . . .  B  ADDR  00E8H.3   A   
CLIF0_C2FIF . . . . . . . . . . . .  B  ADDR  00E8H.4   A   
CLIF0_C2RIF . . . . . . . . . . . .  B  ADDR  00E8H.5   A   
CLIF0_C3FIF . . . . . . . . . . . .  B  ADDR  00E8H.6   A   
CLIF0_C3RIF . . . . . . . . . . . .  B  ADDR  00E8H.7   A   
CLKSEL. . . . . . . . . . . . . . .  D  ADDR  00A9H     A   
CLOUT0. . . . . . . . . . . . . . .  D  ADDR  00D1H     A   
CLU0CF. . . . . . . . . . . . . . .  D  ADDR  00B1H     A   
CLU0FN. . . . . . . . . . . . . . .  D  ADDR  00AFH     A   
CLU0MX. . . . . . . . . . . . . . .  D  ADDR  0084H     A   
CLU1CF. . . . . . . . . . . . . . .  D  ADDR  00B3H     A   
CLU1FN. . . . . . . . . . . . . . .  D  ADDR  00B2H     A   
CLU1MX. . . . . . . . . . . . . . .  D  ADDR  0085H     A   
CLU2CF. . . . . . . . . . . . . . .  D  ADDR  00B6H     A   
CLU2FN. . . . . . . . . . . . . . .  D  ADDR  00B5H     A   
CLU2MX. . . . . . . . . . . . . . .  D  ADDR  0091H     A   
CLU3CF. . . . . . . . . . . . . . .  D  ADDR  00BFH     A   
CLU3FN. . . . . . . . . . . . . . .  D  ADDR  00BEH     A   
CLU3MX. . . . . . . . . . . . . . .  D  ADDR  00AEH     A   
CMP0_IRQN . . . . . . . . . . . . .  N  NUMB  000CH     A   
CMP0CN0 . . . . . . . . . . . . . .  D  ADDR  009BH     A   
CMP0CN1 . . . . . . . . . . . . . .  D  ADDR  0099H     A   
CMP0MD. . . . . . . . . . . . . . .  D  ADDR  009DH     A   
CMP0MX. . . . . . . . . . . . . . .  D  ADDR  009FH     A   
CMP1_IRQN . . . . . . . . . . . . .  N  NUMB  000DH     A   
CMP1CN0 . . . . . . . . . . . . . .  D  ADDR  00BFH     A   
CMP1CN1 . . . . . . . . . . . . . .  D  ADDR  00ACH     A   
AX51 MACRO ASSEMBLER  MESSVERST_NEW                                                         01/07/24 00:14:01 PAGE   125

CMP1MD. . . . . . . . . . . . . . .  D  ADDR  00ABH     A   
CMP1MX. . . . . . . . . . . . . . .  D  ADDR  00AAH     A   
CRC0CN0 . . . . . . . . . . . . . .  D  ADDR  00CEH     A   
CRC0CN1 . . . . . . . . . . . . . .  D  ADDR  0086H     A   
CRC0CNT . . . . . . . . . . . . . .  D  ADDR  00D3H     A   
CRC0DAT . . . . . . . . . . . . . .  D  ADDR  00CBH     A   
CRC0FLIP. . . . . . . . . . . . . .  D  ADDR  00CFH     A   
CRC0IN. . . . . . . . . . . . . . .  D  ADDR  00CAH     A   
CRC0ST. . . . . . . . . . . . . . .  D  ADDR  00D2H     A   
CS_DISPLAY. . . . . . . . . . . . .  B  ADDR  00A0H.0   A   
CS_PDA. . . . . . . . . . . . . . .  B  ADDR  0090H.1   A   
DAC0_MAX. . . . . . . . . . . . . .  B  ADDR  0001H.0   R   SEG=FLAGS2
DAC0_MIN. . . . . . . . . . . . . .  B  ADDR  0001H.1   R   SEG=FLAGS2
DAC0CF0 . . . . . . . . . . . . . .  D  ADDR  0091H     A   
DAC0CF1 . . . . . . . . . . . . . .  D  ADDR  0092H     A   
DAC0H . . . . . . . . . . . . . . .  D  ADDR  0085H     A   
DAC0L . . . . . . . . . . . . . . .  D  ADDR  0084H     A   
DAC1CF0 . . . . . . . . . . . . . .  D  ADDR  0093H     A   
DAC1CF1 . . . . . . . . . . . . . .  D  ADDR  0094H     A   
DAC1H . . . . . . . . . . . . . . .  D  ADDR  008AH     A   
DAC1L . . . . . . . . . . . . . . .  D  ADDR  0089H     A   
DAC2CF0 . . . . . . . . . . . . . .  D  ADDR  0095H     A   
DAC2CF1 . . . . . . . . . . . . . .  D  ADDR  0096H     A   
DAC2H . . . . . . . . . . . . . . .  D  ADDR  008CH     A   
DAC2L . . . . . . . . . . . . . . .  D  ADDR  008BH     A   
DAC3CF0 . . . . . . . . . . . . . .  D  ADDR  009AH     A   
DAC3CF1 . . . . . . . . . . . . . .  D  ADDR  009CH     A   
DAC3H . . . . . . . . . . . . . . .  D  ADDR  008EH     A   
DAC3L . . . . . . . . . . . . . . .  D  ADDR  008DH     A   
DAC_OUT . . . . . . . . . . . . . .  B  ADDR  00B0H.1   A   
DACGCF0 . . . . . . . . . . . . . .  D  ADDR  0088H     A   
DACGCF0_D01REFSL. . . . . . . . . .  B  ADDR  0088H.3   A   
DACGCF0_D1AMEN. . . . . . . . . . .  B  ADDR  0088H.2   A   
DACGCF0_D1SRC0. . . . . . . . . . .  B  ADDR  0088H.0   A   
DACGCF0_D1SRC1. . . . . . . . . . .  B  ADDR  0088H.1   A   
DACGCF0_D23REFSL. . . . . . . . . .  B  ADDR  0088H.7   A   
DACGCF0_D3AMEN. . . . . . . . . . .  B  ADDR  0088H.6   A   
DACGCF0_D3SRC0. . . . . . . . . . .  B  ADDR  0088H.4   A   
DACGCF0_D3SRC1. . . . . . . . . . .  B  ADDR  0088H.5   A   
DACGCF1 . . . . . . . . . . . . . .  D  ADDR  0098H     A   
DACGCF1_D0UDIS. . . . . . . . . . .  B  ADDR  0098H.0   A   
DACGCF1_D1UDIS. . . . . . . . . . .  B  ADDR  0098H.1   A   
DACGCF1_D2UDIS. . . . . . . . . . .  B  ADDR  0098H.2   A   
DACGCF1_D3UDIS. . . . . . . . . . .  B  ADDR  0098H.3   A   
DACGCF2 . . . . . . . . . . . . . .  D  ADDR  00A2H     A   
DE_RE . . . . . . . . . . . . . . .  B  ADDR  00A0H.3   A   
DERIVID . . . . . . . . . . . . . .  D  ADDR  00ADH     A   
DEVICEID. . . . . . . . . . . . . .  D  ADDR  00B5H     A   
DISPLAY . . . . . . . . . . . . . .  C  ADDR  2103H     R   SEG=?CO?MESSVERST_NEW?2
DISPLAY100. . . . . . . . . . . . .  C  ADDR  2165H     R   SEG=?CO?MESSVERST_NEW?2
DISPLAY101. . . . . . . . . . . . .  C  ADDR  216BH     R   SEG=?CO?MESSVERST_NEW?2
DISPLAY102. . . . . . . . . . . . .  C  ADDR  2170H     R   SEG=?CO?MESSVERST_NEW?2
DISPLAY103. . . . . . . . . . . . .  C  ADDR  2173H     R   SEG=?CO?MESSVERST_NEW?2
DISPLAY200. . . . . . . . . . . . .  C  ADDR  21E0H     R   SEG=?CO?MESSVERST_NEW?2
DISPLAY50 . . . . . . . . . . . . .  C  ADDR  2142H     R   SEG=?CO?MESSVERST_NEW?2
DISPLAY51 . . . . . . . . . . . . .  C  ADDR  214FH     R   SEG=?CO?MESSVERST_NEW?2
DISPLAY52 . . . . . . . . . . . . .  C  ADDR  2155H     R   SEG=?CO?MESSVERST_NEW?2
DISPLAY53 . . . . . . . . . . . . .  C  ADDR  215AH     R   SEG=?CO?MESSVERST_NEW?2
DISPLAY_CLEAR . . . . . . . . . . .  B  ADDR  0002H.4   R   SEG=FLAGS2
DISPLAY_CLR . . . . . . . . . . . .  B  ADDR  0002H.2   R   SEG=FLAGS2
DP. . . . . . . . . . . . . . . . .  D  ADDR  0082H     A   
DPH . . . . . . . . . . . . . . . .  D  ADDR  0083H     A   
DPL . . . . . . . . . . . . . . . .  D  ADDR  0082H     A   
AX51 MACRO ASSEMBLER  MESSVERST_NEW                                                         01/07/24 00:14:01 PAGE   126

DRITTE_ZEILE. . . . . . . . . . . .  B  ADDR  0004H.3   R   SEG=FLAGS2
E . . . . . . . . . . . . . . . . .  B  ADDR  0090H.7   A   
EIE1. . . . . . . . . . . . . . . .  D  ADDR  00E6H     A   
EIE2. . . . . . . . . . . . . . . .  D  ADDR  00F3H     A   
EIP1. . . . . . . . . . . . . . . .  D  ADDR  00BBH     A   
EIP1H . . . . . . . . . . . . . . .  D  ADDR  00EEH     A   
EIP2. . . . . . . . . . . . . . . .  D  ADDR  00EDH     A   
EIP2H . . . . . . . . . . . . . . .  D  ADDR  00F6H     A   
EMI0CN. . . . . . . . . . . . . . .  D  ADDR  00E7H     A   
ENCODER_A . . . . . . . . . . . . .  B  ADDR  0090H.4   A   
ENCODER_B . . . . . . . . . . . . .  B  ADDR  0090H.5   A   
ENCODER_DOWN. . . . . . . . . . . .  B  ADDR  0001H.5   R   SEG=FLAGS2
ENCODER_MID . . . . . . . . . . . .  B  ADDR  0090H.6   A   
ENCODER_MIDDLE. . . . . . . . . . .  B  ADDR  0008H.6   R   SEG=FLAGS2
ENCODER_UP. . . . . . . . . . . . .  B  ADDR  0001H.6   R   SEG=FLAGS2
ERROR . . . . . . . . . . . . . . .  B  ADDR  0000H.0   R   SEG=FLAGS2
ERROR1. . . . . . . . . . . . . . .  C  ADDR  2A02H     R   SEG=?CO?MESSVERST_NEW?2
ERROR3. . . . . . . . . . . . . . .  C  ADDR  2A0DH     R   SEG=?CO?MESSVERST_NEW?2
ERSTE_ZEILE . . . . . . . . . . . .  B  ADDR  0003H.3   R   SEG=FLAGS2
F0. . . . . . . . . . . . . . . . .  B  ADDR  00D0H.5   A   
F1. . . . . . . . . . . . . . . . .  B  ADDR  00D0H.1   A   
FLAGS2. . . . . . . . . . . . . . .  B  SEG   00004EH       REL=UNIT, ALN=BIT
FLKEY . . . . . . . . . . . . . . .  D  ADDR  00B7H     A   
GAIN10K . . . . . . . . . . . . . .  C  ADDR  185AH     R   SEG=?CO?MESSVERST_NEW?2
GAIN1K. . . . . . . . . . . . . . .  C  ADDR  17FCH     R   SEG=?CO?MESSVERST_NEW?2
GAIN25K . . . . . . . . . . . . . .  C  ADDR  1879H     R   SEG=?CO?MESSVERST_NEW?2
GAIN2K. . . . . . . . . . . . . . .  C  ADDR  181BH     R   SEG=?CO?MESSVERST_NEW?2
GAIN500 . . . . . . . . . . . . . .  C  ADDR  17DDH     R   SEG=?CO?MESSVERST_NEW?2
GAIN50K . . . . . . . . . . . . . .  C  ADDR  1898H     R   SEG=?CO?MESSVERST_NEW?2
GAIN5K. . . . . . . . . . . . . . .  C  ADDR  183BH     R   SEG=?CO?MESSVERST_NEW?2
GAIN60K . . . . . . . . . . . . . .  C  ADDR  18B7H     R   SEG=?CO?MESSVERST_NEW?2
GAIN_DELAY. . . . . . . . . . . . .  C  ADDR  127CH     R   SEG=?CO?MESSVERST_NEW?2
GAIN_DOWN . . . . . . . . . . . . .  C  ADDR  1272H     R   SEG=?CO?MESSVERST_NEW?2
GAIN_DOWN2. . . . . . . . . . . . .  C  ADDR  1279H     R   SEG=?CO?MESSVERST_NEW?2
GAIN_ENDE . . . . . . . . . . . . .  C  ADDR  19B7H     R   SEG=?CO?MESSVERST_NEW?2
GAIN_ENDE_1 . . . . . . . . . . . .  C  ADDR  19BFH     R   SEG=?CO?MESSVERST_NEW?2
GAIN_SET. . . . . . . . . . . . . .  B  ADDR  0000H.5   R   SEG=FLAGS2
GAIN_UP . . . . . . . . . . . . . .  C  ADDR  1268H     R   SEG=?CO?MESSVERST_NEW?2
GAIN_UP2. . . . . . . . . . . . . .  C  ADDR  126FH     R   SEG=?CO?MESSVERST_NEW?2
HELP. . . . . . . . . . . . . . . .  C  ADDR  0346H     R   SEG=?CO?MESSVERST_NEW?2
HFO0CAL . . . . . . . . . . . . . .  D  ADDR  00C7H     A   
HFO1CAL . . . . . . . . . . . . . .  D  ADDR  00D6H     A   
HFOCN . . . . . . . . . . . . . . .  D  ADDR  00EFH     A   
I2C0_IRQN . . . . . . . . . . . . .  N  NUMB  0010H     A   
I2C0ADM . . . . . . . . . . . . . .  D  ADDR  00FFH     A   
I2C0CN0 . . . . . . . . . . . . . .  D  ADDR  00BAH     A   
I2C0DIN . . . . . . . . . . . . . .  D  ADDR  00BCH     A   
I2C0DOUT. . . . . . . . . . . . . .  D  ADDR  00BBH     A   
I2C0FCN0. . . . . . . . . . . . . .  D  ADDR  00ADH     A   
I2C0FCN1. . . . . . . . . . . . . .  D  ADDR  00ABH     A   
I2C0FCT . . . . . . . . . . . . . .  D  ADDR  00F5H     A   
I2C0SLAD. . . . . . . . . . . . . .  D  ADDR  00BDH     A   
I2C0STAT. . . . . . . . . . . . . .  D  ADDR  00B9H     A   
IDN . . . . . . . . . . . . . . . .  C  ADDR  0BC4H     R   SEG=?CO?MESSVERST_NEW?2
IDN_1 . . . . . . . . . . . . . . .  C  ADDR  0BCAH     R   SEG=?CO?MESSVERST_NEW?2
IDN_2 . . . . . . . . . . . . . . .  C  ADDR  0BDCH     R   SEG=?CO?MESSVERST_NEW?2
IDN_3 . . . . . . . . . . . . . . .  C  ADDR  0BE4H     R   SEG=?CO?MESSVERST_NEW?2
IDN_4 . . . . . . . . . . . . . . .  C  ADDR  0BEFH     R   SEG=?CO?MESSVERST_NEW?2
IE. . . . . . . . . . . . . . . . .  D  ADDR  00A8H     A   
IE_EA . . . . . . . . . . . . . . .  B  ADDR  00A8H.7   A   
IE_ES0. . . . . . . . . . . . . . .  B  ADDR  00A8H.4   A   
IE_ESPI0. . . . . . . . . . . . . .  B  ADDR  00A8H.6   A   
IE_ET0. . . . . . . . . . . . . . .  B  ADDR  00A8H.1   A   
AX51 MACRO ASSEMBLER  MESSVERST_NEW                                                         01/07/24 00:14:01 PAGE   127

IE_ET1. . . . . . . . . . . . . . .  B  ADDR  00A8H.3   A   
IE_ET2. . . . . . . . . . . . . . .  B  ADDR  00A8H.5   A   
IE_EX0. . . . . . . . . . . . . . .  B  ADDR  00A8H.0   A   
IE_EX1. . . . . . . . . . . . . . .  B  ADDR  00A8H.2   A   
INIT. . . . . . . . . . . . . . . .  C  ADDR  044BH     R   SEG=?CO?MESSVERST_NEW?2
INIT1 . . . . . . . . . . . . . . .  C  ADDR  210BH     R   SEG=?CO?MESSVERST_NEW?2
INIT11. . . . . . . . . . . . . . .  C  ADDR  2126H     R   SEG=?CO?MESSVERST_NEW?2
INIT2 . . . . . . . . . . . . . . .  C  ADDR  212BH     R   SEG=?CO?MESSVERST_NEW?2
INIT_DELAY. . . . . . . . . . . . .  C  ADDR  211AH     R   SEG=?CO?MESSVERST_NEW?2
INIT_DISPLAY_OK . . . . . . . . . .  B  ADDR  0002H.3   R   SEG=FLAGS2
INT0_IRQN . . . . . . . . . . . . .  N  NUMB  0000H     A   
INT1_IRQN . . . . . . . . . . . . .  N  NUMB  0002H     A   
IP. . . . . . . . . . . . . . . . .  D  ADDR  00B8H     A   
IP_PS0. . . . . . . . . . . . . . .  B  ADDR  00B8H.4   A   
IP_PSPI0. . . . . . . . . . . . . .  B  ADDR  00B8H.6   A   
IP_PT0. . . . . . . . . . . . . . .  B  ADDR  00B8H.1   A   
IP_PT1. . . . . . . . . . . . . . .  B  ADDR  00B8H.3   A   
IP_PT2. . . . . . . . . . . . . . .  B  ADDR  00B8H.5   A   
IP_PX0. . . . . . . . . . . . . . .  B  ADDR  00B8H.0   A   
IP_PX1. . . . . . . . . . . . . . .  B  ADDR  00B8H.2   A   
IPH . . . . . . . . . . . . . . . .  D  ADDR  00F2H     A   
IT01CF. . . . . . . . . . . . . . .  D  ADDR  00E4H     A   
KALIB_10K_0 . . . . . . . . . . . .  C  ADDR  2442H     R   SEG=?CO?MESSVERST_NEW?2
KALIB_10K_1 . . . . . . . . . . . .  C  ADDR  245AH     R   SEG=?CO?MESSVERST_NEW?2
KALIB_10K_2 . . . . . . . . . . . .  C  ADDR  245DH     R   SEG=?CO?MESSVERST_NEW?2
KALIB_10K_3 . . . . . . . . . . . .  C  ADDR  247EH     R   SEG=?CO?MESSVERST_NEW?2
KALIB_10K_4 . . . . . . . . . . . .  C  ADDR  249BH     R   SEG=?CO?MESSVERST_NEW?2
KALIB_10K_5 . . . . . . . . . . . .  C  ADDR  24A5H     R   SEG=?CO?MESSVERST_NEW?2
KALIB_10K_6 . . . . . . . . . . . .  C  ADDR  24A9H     R   SEG=?CO?MESSVERST_NEW?2
KALIB_1K_0. . . . . . . . . . . . .  C  ADDR  2304H     R   SEG=?CO?MESSVERST_NEW?2
KALIB_1K_1. . . . . . . . . . . . .  C  ADDR  231CH     R   SEG=?CO?MESSVERST_NEW?2
KALIB_1K_2. . . . . . . . . . . . .  C  ADDR  231FH     R   SEG=?CO?MESSVERST_NEW?2
KALIB_1K_3. . . . . . . . . . . . .  C  ADDR  2340H     R   SEG=?CO?MESSVERST_NEW?2
KALIB_1K_4. . . . . . . . . . . . .  C  ADDR  235DH     R   SEG=?CO?MESSVERST_NEW?2
KALIB_1K_5. . . . . . . . . . . . .  C  ADDR  2367H     R   SEG=?CO?MESSVERST_NEW?2
KALIB_1K_6. . . . . . . . . . . . .  C  ADDR  236BH     R   SEG=?CO?MESSVERST_NEW?2
KALIB_25K_0 . . . . . . . . . . . .  C  ADDR  24ACH     R   SEG=?CO?MESSVERST_NEW?2
KALIB_25K_1 . . . . . . . . . . . .  C  ADDR  24C4H     R   SEG=?CO?MESSVERST_NEW?2
KALIB_25K_2 . . . . . . . . . . . .  C  ADDR  24C7H     R   SEG=?CO?MESSVERST_NEW?2
KALIB_25K_3 . . . . . . . . . . . .  C  ADDR  24E8H     R   SEG=?CO?MESSVERST_NEW?2
KALIB_25K_4 . . . . . . . . . . . .  C  ADDR  2505H     R   SEG=?CO?MESSVERST_NEW?2
KALIB_25K_5 . . . . . . . . . . . .  C  ADDR  250FH     R   SEG=?CO?MESSVERST_NEW?2
KALIB_25K_6 . . . . . . . . . . . .  C  ADDR  2513H     R   SEG=?CO?MESSVERST_NEW?2
KALIB_2K_0. . . . . . . . . . . . .  C  ADDR  236EH     R   SEG=?CO?MESSVERST_NEW?2
KALIB_2K_1. . . . . . . . . . . . .  C  ADDR  2386H     R   SEG=?CO?MESSVERST_NEW?2
KALIB_2K_2. . . . . . . . . . . . .  C  ADDR  2389H     R   SEG=?CO?MESSVERST_NEW?2
KALIB_2K_3. . . . . . . . . . . . .  C  ADDR  23AAH     R   SEG=?CO?MESSVERST_NEW?2
KALIB_2K_4. . . . . . . . . . . . .  C  ADDR  23C7H     R   SEG=?CO?MESSVERST_NEW?2
KALIB_2K_5. . . . . . . . . . . . .  C  ADDR  23D1H     R   SEG=?CO?MESSVERST_NEW?2
KALIB_2K_6. . . . . . . . . . . . .  C  ADDR  23D5H     R   SEG=?CO?MESSVERST_NEW?2
KALIB_500_0 . . . . . . . . . . . .  C  ADDR  2297H     R   SEG=?CO?MESSVERST_NEW?2
KALIB_500_1 . . . . . . . . . . . .  C  ADDR  22B2H     R   SEG=?CO?MESSVERST_NEW?2
KALIB_500_2 . . . . . . . . . . . .  C  ADDR  22B5H     R   SEG=?CO?MESSVERST_NEW?2
KALIB_500_3 . . . . . . . . . . . .  C  ADDR  22D6H     R   SEG=?CO?MESSVERST_NEW?2
KALIB_500_4 . . . . . . . . . . . .  C  ADDR  22F3H     R   SEG=?CO?MESSVERST_NEW?2
KALIB_500_5 . . . . . . . . . . . .  C  ADDR  22FDH     R   SEG=?CO?MESSVERST_NEW?2
KALIB_500_6 . . . . . . . . . . . .  C  ADDR  2301H     R   SEG=?CO?MESSVERST_NEW?2
KALIB_50K_0 . . . . . . . . . . . .  C  ADDR  2516H     R   SEG=?CO?MESSVERST_NEW?2
KALIB_50K_1 . . . . . . . . . . . .  C  ADDR  252EH     R   SEG=?CO?MESSVERST_NEW?2
KALIB_50K_2 . . . . . . . . . . . .  C  ADDR  2531H     R   SEG=?CO?MESSVERST_NEW?2
KALIB_50K_3 . . . . . . . . . . . .  C  ADDR  2552H     R   SEG=?CO?MESSVERST_NEW?2
KALIB_50K_4 . . . . . . . . . . . .  C  ADDR  256FH     R   SEG=?CO?MESSVERST_NEW?2
KALIB_50K_5 . . . . . . . . . . . .  C  ADDR  2579H     R   SEG=?CO?MESSVERST_NEW?2
AX51 MACRO ASSEMBLER  MESSVERST_NEW                                                         01/07/24 00:14:01 PAGE   128

KALIB_50K_6 . . . . . . . . . . . .  C  ADDR  257DH     R   SEG=?CO?MESSVERST_NEW?2
KALIB_5K_0. . . . . . . . . . . . .  C  ADDR  23D8H     R   SEG=?CO?MESSVERST_NEW?2
KALIB_5K_1. . . . . . . . . . . . .  C  ADDR  23F0H     R   SEG=?CO?MESSVERST_NEW?2
KALIB_5K_2. . . . . . . . . . . . .  C  ADDR  23F3H     R   SEG=?CO?MESSVERST_NEW?2
KALIB_5K_3. . . . . . . . . . . . .  C  ADDR  2414H     R   SEG=?CO?MESSVERST_NEW?2
KALIB_5K_4. . . . . . . . . . . . .  C  ADDR  2431H     R   SEG=?CO?MESSVERST_NEW?2
KALIB_5K_5. . . . . . . . . . . . .  C  ADDR  243BH     R   SEG=?CO?MESSVERST_NEW?2
KALIB_5K_6. . . . . . . . . . . . .  C  ADDR  243FH     R   SEG=?CO?MESSVERST_NEW?2
KALIB_60K_0 . . . . . . . . . . . .  C  ADDR  2580H     R   SEG=?CO?MESSVERST_NEW?2
KALIB_60K_1 . . . . . . . . . . . .  C  ADDR  2598H     R   SEG=?CO?MESSVERST_NEW?2
KALIB_60K_2 . . . . . . . . . . . .  C  ADDR  259BH     R   SEG=?CO?MESSVERST_NEW?2
KALIB_60K_3 . . . . . . . . . . . .  C  ADDR  25BCH     R   SEG=?CO?MESSVERST_NEW?2
KALIB_60K_4 . . . . . . . . . . . .  C  ADDR  25D9H     R   SEG=?CO?MESSVERST_NEW?2
KALIB_60K_5 . . . . . . . . . . . .  C  ADDR  25E3H     R   SEG=?CO?MESSVERST_NEW?2
KALIB_60K_6 . . . . . . . . . . . .  C  ADDR  25E5H     R   SEG=?CO?MESSVERST_NEW?2
KALIB_END . . . . . . . . . . . . .  B  ADDR  0007H.7   R   SEG=FLAGS2
KALIB_END_0 . . . . . . . . . . . .  C  ADDR  25E8H     R   SEG=?CO?MESSVERST_NEW?2
KALIB_END_1 . . . . . . . . . . . .  C  ADDR  25F8H     R   SEG=?CO?MESSVERST_NEW?2
KALIBRIER1. . . . . . . . . . . . .  C  ADDR  21E3H     R   SEG=?CO?MESSVERST_NEW?2
KALIBRIER100. . . . . . . . . . . .  C  ADDR  268AH     R   SEG=?CO?MESSVERST_NEW?2
KALIBRIER105. . . . . . . . . . . .  C  ADDR  2695H     R   SEG=?CO?MESSVERST_NEW?2
KALIBRIER110. . . . . . . . . . . .  C  ADDR  26A0H     R   SEG=?CO?MESSVERST_NEW?2
KALIBRIER115. . . . . . . . . . . .  C  ADDR  26ABH     R   SEG=?CO?MESSVERST_NEW?2
KALIBRIER165. . . . . . . . . . . .  C  ADDR  26ACH     R   SEG=?CO?MESSVERST_NEW?2
KALIBRIER2. . . . . . . . . . . . .  C  ADDR  21E9H     R   SEG=?CO?MESSVERST_NEW?2
KALIBRIER21 . . . . . . . . . . . .  C  ADDR  2236H     R   SEG=?CO?MESSVERST_NEW?2
KALIBRIER22 . . . . . . . . . . . .  C  ADDR  223CH     R   SEG=?CO?MESSVERST_NEW?2
KALIBRIER23 . . . . . . . . . . . .  C  ADDR  2241H     R   SEG=?CO?MESSVERST_NEW?2
KALIBRIER3. . . . . . . . . . . . .  C  ADDR  21F4H     R   SEG=?CO?MESSVERST_NEW?2
KALIBRIER30 . . . . . . . . . . . .  C  ADDR  225AH     R   SEG=?CO?MESSVERST_NEW?2
KALIBRIER31 . . . . . . . . . . . .  C  ADDR  2260H     R   SEG=?CO?MESSVERST_NEW?2
KALIBRIER32 . . . . . . . . . . . .  C  ADDR  2266H     R   SEG=?CO?MESSVERST_NEW?2
KALIBRIER33 . . . . . . . . . . . .  C  ADDR  226CH     R   SEG=?CO?MESSVERST_NEW?2
KALIBRIER34 . . . . . . . . . . . .  C  ADDR  2272H     R   SEG=?CO?MESSVERST_NEW?2
KALIBRIER35 . . . . . . . . . . . .  C  ADDR  2278H     R   SEG=?CO?MESSVERST_NEW?2
KALIBRIER36 . . . . . . . . . . . .  C  ADDR  227EH     R   SEG=?CO?MESSVERST_NEW?2
KALIBRIER37 . . . . . . . . . . . .  C  ADDR  2284H     R   SEG=?CO?MESSVERST_NEW?2
KALIBRIER37_1 . . . . . . . . . . .  C  ADDR  228AH     R   SEG=?CO?MESSVERST_NEW?2
KALIBRIER38 . . . . . . . . . . . .  C  ADDR  2290H     R   SEG=?CO?MESSVERST_NEW?2
KALIBRIER39 . . . . . . . . . . . .  C  ADDR  25FAH     R   SEG=?CO?MESSVERST_NEW?2
KALIBRIER4. . . . . . . . . . . . .  C  ADDR  2209H     R   SEG=?CO?MESSVERST_NEW?2
KALIBRIER40 . . . . . . . . . . . .  C  ADDR  2606H     R   SEG=?CO?MESSVERST_NEW?2
KALIBRIER45 . . . . . . . . . . . .  C  ADDR  2611H     R   SEG=?CO?MESSVERST_NEW?2
KALIBRIER5. . . . . . . . . . . . .  C  ADDR  221EH     R   SEG=?CO?MESSVERST_NEW?2
KALIBRIER50 . . . . . . . . . . . .  C  ADDR  261CH     R   SEG=?CO?MESSVERST_NEW?2
KALIBRIER55 . . . . . . . . . . . .  C  ADDR  2627H     R   SEG=?CO?MESSVERST_NEW?2
KALIBRIER60 . . . . . . . . . . . .  C  ADDR  2632H     R   SEG=?CO?MESSVERST_NEW?2
KALIBRIER65 . . . . . . . . . . . .  C  ADDR  263DH     R   SEG=?CO?MESSVERST_NEW?2
KALIBRIER70 . . . . . . . . . . . .  C  ADDR  2648H     R   SEG=?CO?MESSVERST_NEW?2
KALIBRIER75 . . . . . . . . . . . .  C  ADDR  2653H     R   SEG=?CO?MESSVERST_NEW?2
KALIBRIER80 . . . . . . . . . . . .  C  ADDR  265EH     R   SEG=?CO?MESSVERST_NEW?2
KALIBRIER85 . . . . . . . . . . . .  C  ADDR  2669H     R   SEG=?CO?MESSVERST_NEW?2
KALIBRIER90 . . . . . . . . . . . .  C  ADDR  2674H     R   SEG=?CO?MESSVERST_NEW?2
KALIBRIER95 . . . . . . . . . . . .  C  ADDR  267FH     R   SEG=?CO?MESSVERST_NEW?2
KALIBRIEREN . . . . . . . . . . . .  B  ADDR  0007H.6   R   SEG=FLAGS2
KALIBRIEREN_ENDE. . . . . . . . . .  C  ADDR  2716H     R   SEG=?CO?MESSVERST_NEW?2
LCD_FERTIG. . . . . . . . . . . . .  B  ADDR  0005H.4   R   SEG=FLAGS2
LED_GREEN . . . . . . . . . . . . .  B  ADDR  00A0H.4   A   
LED_RED . . . . . . . . . . . . . .  B  ADDR  00A0H.5   A   
LED_WHITE . . . . . . . . . . . . .  B  ADDR  00A0H.6   A   
LEGACY_PAGE . . . . . . . . . . . .  N  NUMB  0000H     A   
LFO0CN. . . . . . . . . . . . . . .  D  ADDR  00B1H     A   
LOCKED. . . . . . . . . . . . . . .  B  ADDR  0008H.5   R   SEG=FLAGS2
AX51 MACRO ASSEMBLER  MESSVERST_NEW                                                         01/07/24 00:14:01 PAGE   129

LP_1000HZ . . . . . . . . . . . . .  B  ADDR  0007H.2   R   SEG=FLAGS2
LP_300HZ. . . . . . . . . . . . . .  B  ADDR  0007H.3   R   SEG=FLAGS2
LP_50HZ . . . . . . . . . . . . . .  B  ADDR  0007H.4   R   SEG=FLAGS2
LP_OFF. . . . . . . . . . . . . . .  B  ADDR  0007H.5   R   SEG=FLAGS2
MAIN. . . . . . . . . . . . . . . .  C  ADDR  088AH     R   SEG=?CO?MESSVERST_NEW?2
MAIN0 . . . . . . . . . . . . . . .  C  ADDR  0F9AH     R   SEG=?CO?MESSVERST_NEW?2
MAIN1 . . . . . . . . . . . . . . .  C  ADDR  0FA0H     R   SEG=?CO?MESSVERST_NEW?2
MAIN10. . . . . . . . . . . . . . .  C  ADDR  1043H     R   SEG=?CO?MESSVERST_NEW?2
MAIN11. . . . . . . . . . . . . . .  C  ADDR  107BH     R   SEG=?CO?MESSVERST_NEW?2
MAIN12. . . . . . . . . . . . . . .  C  ADDR  10B3H     R   SEG=?CO?MESSVERST_NEW?2
MAIN13. . . . . . . . . . . . . . .  C  ADDR  10BBH     R   SEG=?CO?MESSVERST_NEW?2
MAIN14. . . . . . . . . . . . . . .  C  ADDR  10F0H     R   SEG=?CO?MESSVERST_NEW?2
MAIN15. . . . . . . . . . . . . . .  C  ADDR  10F0H     R   SEG=?CO?MESSVERST_NEW?2
MAIN16. . . . . . . . . . . . . . .  C  ADDR  111EH     R   SEG=?CO?MESSVERST_NEW?2
MAIN2 . . . . . . . . . . . . . . .  C  ADDR  0FA6H     R   SEG=?CO?MESSVERST_NEW?2
MAIN20. . . . . . . . . . . . . . .  C  ADDR  111FH     R   SEG=?CO?MESSVERST_NEW?2
MAIN21. . . . . . . . . . . . . . .  C  ADDR  1123H     R   SEG=?CO?MESSVERST_NEW?2
MAIN22. . . . . . . . . . . . . . .  C  ADDR  1129H     R   SEG=?CO?MESSVERST_NEW?2
MAIN23. . . . . . . . . . . . . . .  C  ADDR  112DH     R   SEG=?CO?MESSVERST_NEW?2
MAIN23_1. . . . . . . . . . . . . .  C  ADDR  1133H     R   SEG=?CO?MESSVERST_NEW?2
MAIN24. . . . . . . . . . . . . . .  C  ADDR  1163H     R   SEG=?CO?MESSVERST_NEW?2
MAIN25. . . . . . . . . . . . . . .  C  ADDR  1163H     R   SEG=?CO?MESSVERST_NEW?2
MAIN29. . . . . . . . . . . . . . .  C  ADDR  1195H     R   SEG=?CO?MESSVERST_NEW?2
MAIN3 . . . . . . . . . . . . . . .  C  ADDR  0FABH     R   SEG=?CO?MESSVERST_NEW?2
MAIN30. . . . . . . . . . . . . . .  C  ADDR  1197H     R   SEG=?CO?MESSVERST_NEW?2
MAIN30_00 . . . . . . . . . . . . .  C  ADDR  119CH     R   SEG=?CO?MESSVERST_NEW?2
MAIN30_01 . . . . . . . . . . . . .  C  ADDR  119FH     R   SEG=?CO?MESSVERST_NEW?2
MAIN30_02 . . . . . . . . . . . . .  C  ADDR  11B1H     R   SEG=?CO?MESSVERST_NEW?2
MAIN30_03 . . . . . . . . . . . . .  C  ADDR  11B4H     R   SEG=?CO?MESSVERST_NEW?2
MAIN30_04 . . . . . . . . . . . . .  C  ADDR  11C0H     R   SEG=?CO?MESSVERST_NEW?2
MAIN30_05 . . . . . . . . . . . . .  C  ADDR  11C4H     R   SEG=?CO?MESSVERST_NEW?2
MAIN30_06 . . . . . . . . . . . . .  C  ADDR  11CBH     R   SEG=?CO?MESSVERST_NEW?2
MAIN30_07 . . . . . . . . . . . . .  C  ADDR  11DDH     R   SEG=?CO?MESSVERST_NEW?2
MAIN30_08 . . . . . . . . . . . . .  C  ADDR  11E1H     R   SEG=?CO?MESSVERST_NEW?2
MAIN31. . . . . . . . . . . . . . .  C  ADDR  1200H     R   SEG=?CO?MESSVERST_NEW?2
MAIN32. . . . . . . . . . . . . . .  C  ADDR  120AH     R   SEG=?CO?MESSVERST_NEW?2
MAIN33. . . . . . . . . . . . . . .  C  ADDR  120FH     R   SEG=?CO?MESSVERST_NEW?2
MAIN34. . . . . . . . . . . . . . .  C  ADDR  1210H     R   SEG=?CO?MESSVERST_NEW?2
MAIN35. . . . . . . . . . . . . . .  C  ADDR  1237H     R   SEG=?CO?MESSVERST_NEW?2
MAIN36. . . . . . . . . . . . . . .  C  ADDR  123BH     R   SEG=?CO?MESSVERST_NEW?2
MAIN37. . . . . . . . . . . . . . .  C  ADDR  123FH     R   SEG=?CO?MESSVERST_NEW?2
MAIN38. . . . . . . . . . . . . . .  C  ADDR  1243H     R   SEG=?CO?MESSVERST_NEW?2
MAIN39. . . . . . . . . . . . . . .  C  ADDR  1247H     R   SEG=?CO?MESSVERST_NEW?2
MAIN4 . . . . . . . . . . . . . . .  C  ADDR  0FB3H     R   SEG=?CO?MESSVERST_NEW?2
MAIN48. . . . . . . . . . . . . . .  C  ADDR  124BH     R   SEG=?CO?MESSVERST_NEW?2
MAIN49. . . . . . . . . . . . . . .  C  ADDR  125DH     R   SEG=?CO?MESSVERST_NEW?2
MAIN5 . . . . . . . . . . . . . . .  C  ADDR  0FBBH     R   SEG=?CO?MESSVERST_NEW?2
MAIN50. . . . . . . . . . . . . . .  C  ADDR  1266H     R   SEG=?CO?MESSVERST_NEW?2
MAIN6 . . . . . . . . . . . . . . .  C  ADDR  0FC4H     R   SEG=?CO?MESSVERST_NEW?2
MAIN7 . . . . . . . . . . . . . . .  C  ADDR  0FD0H     R   SEG=?CO?MESSVERST_NEW?2
MAIN8 . . . . . . . . . . . . . . .  C  ADDR  0FD3H     R   SEG=?CO?MESSVERST_NEW?2
MAIN9 . . . . . . . . . . . . . . .  C  ADDR  100BH     R   SEG=?CO?MESSVERST_NEW?2
MITTELWERT_HIGH . . . . . . . . . .  B  ADDR  0008H.7   R   SEG=FLAGS2
OPTION. . . . . . . . . . . . . . .  C  ADDR  1D9FH     R   SEG=?CO?MESSVERST_NEW?2
OPTION1 . . . . . . . . . . . . . .  C  ADDR  1DA4H     R   SEG=?CO?MESSVERST_NEW?2
OPTION10. . . . . . . . . . . . . .  C  ADDR  1DC5H     R   SEG=?CO?MESSVERST_NEW?2
OPTION100 . . . . . . . . . . . . .  C  ADDR  1F36H     R   SEG=?CO?MESSVERST_NEW?2
OPTION11. . . . . . . . . . . . . .  C  ADDR  1DD5H     R   SEG=?CO?MESSVERST_NEW?2
OPTION110 . . . . . . . . . . . . .  C  ADDR  1F44H     R   SEG=?CO?MESSVERST_NEW?2
OPTION111 . . . . . . . . . . . . .  C  ADDR  1F4CH     R   SEG=?CO?MESSVERST_NEW?2
OPTION11_1. . . . . . . . . . . . .  C  ADDR  1DDDH     R   SEG=?CO?MESSVERST_NEW?2
OPTION11_2. . . . . . . . . . . . .  C  ADDR  1DE1H     R   SEG=?CO?MESSVERST_NEW?2
OPTION11_3. . . . . . . . . . . . .  C  ADDR  1DE5H     R   SEG=?CO?MESSVERST_NEW?2
AX51 MACRO ASSEMBLER  MESSVERST_NEW                                                         01/07/24 00:14:01 PAGE   130

OPTION11_4. . . . . . . . . . . . .  C  ADDR  1DE9H     R   SEG=?CO?MESSVERST_NEW?2
OPTION11_5. . . . . . . . . . . . .  C  ADDR  1DF0H     R   SEG=?CO?MESSVERST_NEW?2
OPTION12. . . . . . . . . . . . . .  C  ADDR  1DF4H     R   SEG=?CO?MESSVERST_NEW?2
OPTION120 . . . . . . . . . . . . .  C  ADDR  1F51H     R   SEG=?CO?MESSVERST_NEW?2
OPTION121 . . . . . . . . . . . . .  C  ADDR  1F5EH     R   SEG=?CO?MESSVERST_NEW?2
OPTION122 . . . . . . . . . . . . .  C  ADDR  1F69H     R   SEG=?CO?MESSVERST_NEW?2
OPTION13. . . . . . . . . . . . . .  C  ADDR  1E03H     R   SEG=?CO?MESSVERST_NEW?2
OPTION130 . . . . . . . . . . . . .  C  ADDR  1F6EH     R   SEG=?CO?MESSVERST_NEW?2
OPTION132 . . . . . . . . . . . . .  C  ADDR  1F79H     R   SEG=?CO?MESSVERST_NEW?2
OPTION133 . . . . . . . . . . . . .  C  ADDR  1F7EH     R   SEG=?CO?MESSVERST_NEW?2
OPTION13_1. . . . . . . . . . . . .  C  ADDR  1E0BH     R   SEG=?CO?MESSVERST_NEW?2
OPTION13_2. . . . . . . . . . . . .  C  ADDR  1E0FH     R   SEG=?CO?MESSVERST_NEW?2
OPTION13_3. . . . . . . . . . . . .  C  ADDR  1E13H     R   SEG=?CO?MESSVERST_NEW?2
OPTION13_4. . . . . . . . . . . . .  C  ADDR  1E17H     R   SEG=?CO?MESSVERST_NEW?2
OPTION13_5. . . . . . . . . . . . .  C  ADDR  1E1EH     R   SEG=?CO?MESSVERST_NEW?2
OPTION140 . . . . . . . . . . . . .  C  ADDR  1F90H     R   SEG=?CO?MESSVERST_NEW?2
OPTION150 . . . . . . . . . . . . .  C  ADDR  1F9DH     R   SEG=?CO?MESSVERST_NEW?2
OPTION20. . . . . . . . . . . . . .  C  ADDR  1E22H     R   SEG=?CO?MESSVERST_NEW?2
OPTION200 . . . . . . . . . . . . .  C  ADDR  1FA2H     R   SEG=?CO?MESSVERST_NEW?2
OPTION21. . . . . . . . . . . . . .  C  ADDR  1E39H     R   SEG=?CO?MESSVERST_NEW?2
OPTION25. . . . . . . . . . . . . .  C  ADDR  1E42H     R   SEG=?CO?MESSVERST_NEW?2
OPTION250 . . . . . . . . . . . . .  C  ADDR  1FAFH     R   SEG=?CO?MESSVERST_NEW?2
OPTION251 . . . . . . . . . . . . .  C  ADDR  1FB6H     R   SEG=?CO?MESSVERST_NEW?2
OPTION252 . . . . . . . . . . . . .  C  ADDR  1FC0H     R   SEG=?CO?MESSVERST_NEW?2
OPTION30. . . . . . . . . . . . . .  C  ADDR  1E4DH     R   SEG=?CO?MESSVERST_NEW?2
OPTION31. . . . . . . . . . . . . .  C  ADDR  1E56H     R   SEG=?CO?MESSVERST_NEW?2
OPTION32. . . . . . . . . . . . . .  C  ADDR  1E5DH     R   SEG=?CO?MESSVERST_NEW?2
OPTION34. . . . . . . . . . . . . .  C  ADDR  1E60H     R   SEG=?CO?MESSVERST_NEW?2
OPTION35. . . . . . . . . . . . . .  C  ADDR  1EA7H     R   SEG=?CO?MESSVERST_NEW?2
OPTION38. . . . . . . . . . . . . .  C  ADDR  1EE7H     R   SEG=?CO?MESSVERST_NEW?2
OPTION39. . . . . . . . . . . . . .  C  ADDR  1EF3H     R   SEG=?CO?MESSVERST_NEW?2
OPTION4 . . . . . . . . . . . . . .  C  ADDR  1DA7H     R   SEG=?CO?MESSVERST_NEW?2
OPTION5 . . . . . . . . . . . . . .  C  ADDR  1DA9H     R   SEG=?CO?MESSVERST_NEW?2
OPTION6 . . . . . . . . . . . . . .  C  ADDR  1DB1H     R   SEG=?CO?MESSVERST_NEW?2
OPTION7 . . . . . . . . . . . . . .  C  ADDR  1DB6H     R   SEG=?CO?MESSVERST_NEW?2
OPTION97. . . . . . . . . . . . . .  C  ADDR  1F1EH     R   SEG=?CO?MESSVERST_NEW?2
OPTION98. . . . . . . . . . . . . .  C  ADDR  1F21H     R   SEG=?CO?MESSVERST_NEW?2
OPTION99. . . . . . . . . . . . . .  C  ADDR  1F2FH     R   SEG=?CO?MESSVERST_NEW?2
OPTION_MENU . . . . . . . . . . . .  B  ADDR  0008H.4   R   SEG=FLAGS2
OUTPUT_NEGATIV. . . . . . . . . . .  B  ADDR  0006H.4   R   SEG=FLAGS2
OUTPUT_OFF. . . . . . . . . . . . .  B  ADDR  0003H.2   R   SEG=FLAGS2
OUTPUT_ON . . . . . . . . . . . . .  B  ADDR  0003H.1   R   SEG=FLAGS2
OUTPUT_POSITIV. . . . . . . . . . .  B  ADDR  0006H.3   R   SEG=FLAGS2
OUTPUTVOLTAGE . . . . . . . . . . .  B  ADDR  0003H.4   R   SEG=FLAGS2
OVERHEAT. . . . . . . . . . . . . .  B  ADDR  0002H.5   R   SEG=FLAGS2
OVERLOAD. . . . . . . . . . . . . .  B  ADDR  00B0H.2   A   
OVERRANGE_N . . . . . . . . . . . .  B  ADDR  0000H.7   R   SEG=FLAGS2
OVERRANGE_P . . . . . . . . . . . .  B  ADDR  0000H.6   R   SEG=FLAGS2
OVERVOLT_N. . . . . . . . . . . . .  B  ADDR  0006H.0   R   SEG=FLAGS2
OVERVOLT_P. . . . . . . . . . . . .  B  ADDR  0005H.7   R   SEG=FLAGS2
P0. . . . . . . . . . . . . . . . .  D  ADDR  0080H     A   
P0_B0 . . . . . . . . . . . . . . .  B  ADDR  0080H.0   A   
P0_B1 . . . . . . . . . . . . . . .  B  ADDR  0080H.1   A   
P0_B2 . . . . . . . . . . . . . . .  B  ADDR  0080H.2   A   
P0_B3 . . . . . . . . . . . . . . .  B  ADDR  0080H.3   A   
P0_B4 . . . . . . . . . . . . . . .  B  ADDR  0080H.4   A   
P0_B5 . . . . . . . . . . . . . . .  B  ADDR  0080H.5   A   
P0_B6 . . . . . . . . . . . . . . .  B  ADDR  0080H.6   A   
P0_B7 . . . . . . . . . . . . . . .  B  ADDR  0080H.7   A   
P0MASK. . . . . . . . . . . . . . .  D  ADDR  00FEH     A   
P0MAT . . . . . . . . . . . . . . .  D  ADDR  00FDH     A   
P0MDIN. . . . . . . . . . . . . . .  D  ADDR  00F1H     A   
P0MDOUT . . . . . . . . . . . . . .  D  ADDR  00A4H     A   
AX51 MACRO ASSEMBLER  MESSVERST_NEW                                                         01/07/24 00:14:01 PAGE   131

P0SKIP. . . . . . . . . . . . . . .  D  ADDR  00D4H     A   
P1. . . . . . . . . . . . . . . . .  D  ADDR  0090H     A   
P1_B0 . . . . . . . . . . . . . . .  B  ADDR  0090H.0   A   
P1_B1 . . . . . . . . . . . . . . .  B  ADDR  0090H.1   A   
P1_B2 . . . . . . . . . . . . . . .  B  ADDR  0090H.2   A   
P1_B3 . . . . . . . . . . . . . . .  B  ADDR  0090H.3   A   
P1_B4 . . . . . . . . . . . . . . .  B  ADDR  0090H.4   A   
P1_B5 . . . . . . . . . . . . . . .  B  ADDR  0090H.5   A   
P1_B6 . . . . . . . . . . . . . . .  B  ADDR  0090H.6   A   
P1_B7 . . . . . . . . . . . . . . .  B  ADDR  0090H.7   A   
P1MASK. . . . . . . . . . . . . . .  D  ADDR  00EEH     A   
P1MAT . . . . . . . . . . . . . . .  D  ADDR  00EDH     A   
P1MDIN. . . . . . . . . . . . . . .  D  ADDR  00F2H     A   
P1MDOUT . . . . . . . . . . . . . .  D  ADDR  00A5H     A   
P1SKIP. . . . . . . . . . . . . . .  D  ADDR  00D5H     A   
P2. . . . . . . . . . . . . . . . .  D  ADDR  00A0H     A   
P2_B0 . . . . . . . . . . . . . . .  B  ADDR  00A0H.0   A   
P2_B1 . . . . . . . . . . . . . . .  B  ADDR  00A0H.1   A   
P2_B2 . . . . . . . . . . . . . . .  B  ADDR  00A0H.2   A   
P2_B3 . . . . . . . . . . . . . . .  B  ADDR  00A0H.3   A   
P2_B4 . . . . . . . . . . . . . . .  B  ADDR  00A0H.4   A   
P2_B5 . . . . . . . . . . . . . . .  B  ADDR  00A0H.5   A   
P2_B6 . . . . . . . . . . . . . . .  B  ADDR  00A0H.6   A   
P2MASK. . . . . . . . . . . . . . .  D  ADDR  00FCH     A   
P2MAT . . . . . . . . . . . . . . .  D  ADDR  00FBH     A   
P2MDIN. . . . . . . . . . . . . . .  D  ADDR  00F3H     A   
P2MDOUT . . . . . . . . . . . . . .  D  ADDR  00A6H     A   
P2SKIP. . . . . . . . . . . . . . .  D  ADDR  00CCH     A   
P3. . . . . . . . . . . . . . . . .  D  ADDR  00B0H     A   
P3_B0 . . . . . . . . . . . . . . .  B  ADDR  00B0H.0   A   
P3_B1 . . . . . . . . . . . . . . .  B  ADDR  00B0H.1   A   
P3_B2 . . . . . . . . . . . . . . .  B  ADDR  00B0H.2   A   
P3_B3 . . . . . . . . . . . . . . .  B  ADDR  00B0H.3   A   
P3_B4 . . . . . . . . . . . . . . .  B  ADDR  00B0H.4   A   
P3_B7 . . . . . . . . . . . . . . .  B  ADDR  00B0H.7   A   
P3MDIN. . . . . . . . . . . . . . .  D  ADDR  00F4H     A   
P3MDOUT . . . . . . . . . . . . . .  D  ADDR  009CH     A   
PAGE2 . . . . . . . . . . . . . . .  B  ADDR  0009H.3   R   SEG=FLAGS2
PCA0. . . . . . . . . . . . . . . .  D  ADDR  00F9H     A   
PCA0_IRQN . . . . . . . . . . . . .  N  NUMB  000BH     A   
PCA0CENT. . . . . . . . . . . . . .  D  ADDR  009EH     A   
PCA0CLR . . . . . . . . . . . . . .  D  ADDR  009CH     A   
PCA0CN0 . . . . . . . . . . . . . .  D  ADDR  00D8H     A   
PCA0CN0_CCF0. . . . . . . . . . . .  B  ADDR  00D8H.0   A   
PCA0CN0_CCF1. . . . . . . . . . . .  B  ADDR  00D8H.1   A   
PCA0CN0_CCF2. . . . . . . . . . . .  B  ADDR  00D8H.2   A   
PCA0CN0_CCF3. . . . . . . . . . . .  B  ADDR  00D8H.3   A   
PCA0CN0_CCF4. . . . . . . . . . . .  B  ADDR  00D8H.4   A   
PCA0CN0_CCF5. . . . . . . . . . . .  B  ADDR  00D8H.5   A   
PCA0CN0_CF. . . . . . . . . . . . .  B  ADDR  00D8H.7   A   
PCA0CN0_CR. . . . . . . . . . . . .  B  ADDR  00D8H.6   A   
PCA0CP0 . . . . . . . . . . . . . .  D  ADDR  00FBH     A   
PCA0CP1 . . . . . . . . . . . . . .  D  ADDR  00E9H     A   
PCA0CP2 . . . . . . . . . . . . . .  D  ADDR  00EBH     A   
PCA0CP3 . . . . . . . . . . . . . .  D  ADDR  00F4H     A   
PCA0CP4 . . . . . . . . . . . . . .  D  ADDR  0084H     A   
PCA0CP5 . . . . . . . . . . . . . .  D  ADDR  00DDH     A   
PCA0CPH0. . . . . . . . . . . . . .  D  ADDR  00FCH     A   
PCA0CPH1. . . . . . . . . . . . . .  D  ADDR  00EAH     A   
PCA0CPH2. . . . . . . . . . . . . .  D  ADDR  00ECH     A   
PCA0CPH3. . . . . . . . . . . . . .  D  ADDR  00F5H     A   
PCA0CPH4. . . . . . . . . . . . . .  D  ADDR  0085H     A   
PCA0CPH5. . . . . . . . . . . . . .  D  ADDR  00DEH     A   
AX51 MACRO ASSEMBLER  MESSVERST_NEW                                                         01/07/24 00:14:01 PAGE   132

PCA0CPL0. . . . . . . . . . . . . .  D  ADDR  00FBH     A   
PCA0CPL1. . . . . . . . . . . . . .  D  ADDR  00E9H     A   
PCA0CPL2. . . . . . . . . . . . . .  D  ADDR  00EBH     A   
PCA0CPL3. . . . . . . . . . . . . .  D  ADDR  00F4H     A   
PCA0CPL4. . . . . . . . . . . . . .  D  ADDR  0084H     A   
PCA0CPL5. . . . . . . . . . . . . .  D  ADDR  00DDH     A   
PCA0CPM0. . . . . . . . . . . . . .  D  ADDR  00DAH     A   
PCA0CPM1. . . . . . . . . . . . . .  D  ADDR  00DBH     A   
PCA0CPM2. . . . . . . . . . . . . .  D  ADDR  00DCH     A   
PCA0CPM3. . . . . . . . . . . . . .  D  ADDR  00AEH     A   
PCA0CPM4. . . . . . . . . . . . . .  D  ADDR  00AFH     A   
PCA0CPM5. . . . . . . . . . . . . .  D  ADDR  00CCH     A   
PCA0H . . . . . . . . . . . . . . .  D  ADDR  00FAH     A   
PCA0L . . . . . . . . . . . . . . .  D  ADDR  00F9H     A   
PCA0MD. . . . . . . . . . . . . . .  D  ADDR  00D9H     A   
PCA0POL . . . . . . . . . . . . . .  D  ADDR  0096H     A   
PCA0PWM . . . . . . . . . . . . . .  D  ADDR  00F7H     A   
PCON0 . . . . . . . . . . . . . . .  D  ADDR  0087H     A   
PCON1 . . . . . . . . . . . . . . .  D  ADDR  00CDH     A   
PFE0CN. . . . . . . . . . . . . . .  D  ADDR  00C1H     A   
PG2_PAGE. . . . . . . . . . . . . .  N  NUMB  0010H     A   
PG3_PAGE. . . . . . . . . . . . . .  N  NUMB  0020H     A   
PG4_PAGE. . . . . . . . . . . . . .  N  NUMB  0030H     A   
PMATCH_IRQN . . . . . . . . . . . .  N  NUMB  0008H     A   
PORTMATCH . . . . . . . . . . . . .  C  ADDR  0334H     R   SEG=?CO?MESSVERST_NEW?2
PORTMATCH0. . . . . . . . . . . . .  C  ADDR  0349H     R   SEG=?CO?MESSVERST_NEW?2
PORTMATCH00 . . . . . . . . . . . .  C  ADDR  0357H     R   SEG=?CO?MESSVERST_NEW?2
PORTMATCH01 . . . . . . . . . . . .  C  ADDR  0359H     R   SEG=?CO?MESSVERST_NEW?2
PORTMATCH1. . . . . . . . . . . . .  C  ADDR  0367H     R   SEG=?CO?MESSVERST_NEW?2
PORTMATCH2. . . . . . . . . . . . .  C  ADDR  038FH     R   SEG=?CO?MESSVERST_NEW?2
PORTMATCH20 . . . . . . . . . . . .  C  ADDR  03EAH     R   SEG=?CO?MESSVERST_NEW?2
PORTMATCH21 . . . . . . . . . . . .  C  ADDR  03EFH     R   SEG=?CO?MESSVERST_NEW?2
PORTMATCH21_1 . . . . . . . . . . .  C  ADDR  0417H     R   SEG=?CO?MESSVERST_NEW?2
PORTMATCH22 . . . . . . . . . . . .  C  ADDR  0428H     R   SEG=?CO?MESSVERST_NEW?2
PORTMATCH5. . . . . . . . . . . . .  C  ADDR  03B7H     R   SEG=?CO?MESSVERST_NEW?2
PORTMATCH51 . . . . . . . . . . . .  C  ADDR  03CFH     R   SEG=?CO?MESSVERST_NEW?2
PORTMATCH6. . . . . . . . . . . . .  C  ADDR  03D1H     R   SEG=?CO?MESSVERST_NEW?2
PRESS_SCREEN_OK . . . . . . . . . .  B  ADDR  0008H.1   R   SEG=FLAGS2
PRTDRV. . . . . . . . . . . . . . .  D  ADDR  00F6H     A   
PSCTL . . . . . . . . . . . . . . .  D  ADDR  008FH     A   
PSTAT0. . . . . . . . . . . . . . .  D  ADDR  00AAH     A   
PSW . . . . . . . . . . . . . . . .  D  ADDR  00D0H     A   
PSW_AC. . . . . . . . . . . . . . .  B  ADDR  00D0H.6   A   
PSW_CY. . . . . . . . . . . . . . .  B  ADDR  00D0H.7   A   
PSW_OV. . . . . . . . . . . . . . .  B  ADDR  00D0H.2   A   
PSW_PARITY. . . . . . . . . . . . .  B  ADDR  00D0H.0   A   
PSW_RS0 . . . . . . . . . . . . . .  B  ADDR  00D0H.3   A   
PSW_RS1 . . . . . . . . . . . . . .  B  ADDR  00D0H.4   A   
QUESTION. . . . . . . . . . . . . .  C  ADDR  0B0AH     R   SEG=?CO?MESSVERST_NEW?2
QUESTION_1. . . . . . . . . . . . .  C  ADDR  0B10H     R   SEG=?CO?MESSVERST_NEW?2
QUESTION_2. . . . . . . . . . . . .  C  ADDR  0B22H     R   SEG=?CO?MESSVERST_NEW?2
QUESTION_3. . . . . . . . . . . . .  C  ADDR  0B2AH     R   SEG=?CO?MESSVERST_NEW?2
QUESTION_4. . . . . . . . . . . . .  C  ADDR  0B35H     R   SEG=?CO?MESSVERST_NEW?2
R3_OVERHEAT . . . . . . . . . . . .  B  ADDR  0003H.6   R   SEG=FLAGS2
R3_SONDERMENU . . . . . . . . . . .  B  ADDR  0004H.0   R   SEG=FLAGS2
REF0CN. . . . . . . . . . . . . . .  D  ADDR  00D1H     A   
REG0CN. . . . . . . . . . . . . . .  D  ADDR  00C9H     A   
RESET . . . . . . . . . . . . . . .  C  ADDR  0AC4H     R   SEG=?CO?MESSVERST_NEW?2
RESET_1 . . . . . . . . . . . . . .  C  ADDR  0ACAH     R   SEG=?CO?MESSVERST_NEW?2
RESET_2 . . . . . . . . . . . . . .  C  ADDR  0ADCH     R   SEG=?CO?MESSVERST_NEW?2
RESET_3 . . . . . . . . . . . . . .  C  ADDR  0AE4H     R   SEG=?CO?MESSVERST_NEW?2
RESET_4 . . . . . . . . . . . . . .  C  ADDR  0AF7H     R   SEG=?CO?MESSVERST_NEW?2
REVID . . . . . . . . . . . . . . .  D  ADDR  00B6H     A   
AX51 MACRO ASSEMBLER  MESSVERST_NEW                                                         01/07/24 00:14:01 PAGE   133

RS485_DATA. . . . . . . . . . . . .  B  ADDR  0009H.4   R   SEG=FLAGS2
RS485_ID. . . . . . . . . . . . . .  B  ADDR  0009H.2   R   SEG=FLAGS2
RS485_MODE. . . . . . . . . . . . .  B  ADDR  0009H.1   R   SEG=FLAGS2
RST_DISPLAY . . . . . . . . . . . .  B  ADDR  00A0H.1   A   
RSTSRC. . . . . . . . . . . . . . .  D  ADDR  00EFH     A   
S1. . . . . . . . . . . . . . . . .  B  ADDR  0090H.3   A   
S2. . . . . . . . . . . . . . . . .  B  ADDR  0090H.2   A   
SAVED_0 . . . . . . . . . . . . . .  C  ADDR  2994H     R   SEG=?CO?MESSVERST_NEW?2
SAVED_1 . . . . . . . . . . . . . .  C  ADDR  29ABH     R   SEG=?CO?MESSVERST_NEW?2
SBCON1. . . . . . . . . . . . . . .  D  ADDR  0094H     A   
SBRLH1. . . . . . . . . . . . . . .  D  ADDR  0096H     A   
SBRLL1. . . . . . . . . . . . . . .  D  ADDR  0095H     A   
SBUF0 . . . . . . . . . . . . . . .  D  ADDR  0099H     A   
SBUF1 . . . . . . . . . . . . . . .  D  ADDR  0092H     A   
SCON0 . . . . . . . . . . . . . . .  D  ADDR  0098H     A   
SCON0_MCE . . . . . . . . . . . . .  B  ADDR  0098H.5   A   
SCON0_RB8 . . . . . . . . . . . . .  B  ADDR  0098H.2   A   
SCON0_REN . . . . . . . . . . . . .  B  ADDR  0098H.4   A   
SCON0_RI. . . . . . . . . . . . . .  B  ADDR  0098H.0   A   
SCON0_SMODE . . . . . . . . . . . .  B  ADDR  0098H.7   A   
SCON0_TB8 . . . . . . . . . . . . .  B  ADDR  0098H.3   A   
SCON0_TI. . . . . . . . . . . . . .  B  ADDR  0098H.1   A   
SCON1 . . . . . . . . . . . . . . .  D  ADDR  00C8H     A   
SCON1_OVR . . . . . . . . . . . . .  B  ADDR  00C8H.7   A   
SCON1_PERR. . . . . . . . . . . . .  B  ADDR  00C8H.6   A   
SCON1_RBX . . . . . . . . . . . . .  B  ADDR  00C8H.2   A   
SCON1_REN . . . . . . . . . . . . .  B  ADDR  00C8H.4   A   
SCON1_RI. . . . . . . . . . . . . .  B  ADDR  00C8H.0   A   
SCON1_TBX . . . . . . . . . . . . .  B  ADDR  00C8H.3   A   
SCON1_TI. . . . . . . . . . . . . .  B  ADDR  00C8H.1   A   
SELBSTTEST. . . . . . . . . . . . .  B  ADDR  0008H.3   R   SEG=FLAGS2
SER . . . . . . . . . . . . . . . .  C  ADDR  0B86H     R   SEG=?CO?MESSVERST_NEW?2
SER_1 . . . . . . . . . . . . . . .  C  ADDR  0B8CH     R   SEG=?CO?MESSVERST_NEW?2
SER_2 . . . . . . . . . . . . . . .  C  ADDR  0B9EH     R   SEG=?CO?MESSVERST_NEW?2
SER_3 . . . . . . . . . . . . . . .  C  ADDR  0BA6H     R   SEG=?CO?MESSVERST_NEW?2
SER_4 . . . . . . . . . . . . . . .  C  ADDR  0BB1H     R   SEG=?CO?MESSVERST_NEW?2
SET_AUTOZERO. . . . . . . . . . . .  B  ADDR  0005H.6   R   SEG=FLAGS2
SET_GAIN. . . . . . . . . . . . . .  B  ADDR  0005H.5   R   SEG=FLAGS2
SET_GAIN10K . . . . . . . . . . . .  C  ADDR  1969H     R   SEG=?CO?MESSVERST_NEW?2
SET_GAIN1K. . . . . . . . . . . . .  C  ADDR  191BH     R   SEG=?CO?MESSVERST_NEW?2
SET_GAIN25K . . . . . . . . . . . .  C  ADDR  1983H     R   SEG=?CO?MESSVERST_NEW?2
SET_GAIN2K. . . . . . . . . . . . .  C  ADDR  1935H     R   SEG=?CO?MESSVERST_NEW?2
SET_GAIN500 . . . . . . . . . . . .  C  ADDR  18FFH     R   SEG=?CO?MESSVERST_NEW?2
SET_GAIN50K . . . . . . . . . . . .  C  ADDR  199DH     R   SEG=?CO?MESSVERST_NEW?2
SET_GAIN5K. . . . . . . . . . . . .  C  ADDR  194FH     R   SEG=?CO?MESSVERST_NEW?2
SET_GAIN_1. . . . . . . . . . . . .  C  ADDR  18D6H     R   SEG=?CO?MESSVERST_NEW?2
SET_GAIN_2. . . . . . . . . . . . .  C  ADDR  18DBH     R   SEG=?CO?MESSVERST_NEW?2
SET_GAIN_3. . . . . . . . . . . . .  C  ADDR  18E0H     R   SEG=?CO?MESSVERST_NEW?2
SET_GAIN_4. . . . . . . . . . . . .  C  ADDR  18E5H     R   SEG=?CO?MESSVERST_NEW?2
SET_GAIN_5. . . . . . . . . . . . .  C  ADDR  18EAH     R   SEG=?CO?MESSVERST_NEW?2
SET_GAIN_6. . . . . . . . . . . . .  C  ADDR  18EFH     R   SEG=?CO?MESSVERST_NEW?2
SET_GAIN_7. . . . . . . . . . . . .  C  ADDR  18F4H     R   SEG=?CO?MESSVERST_NEW?2
SET_GAIN_8. . . . . . . . . . . . .  C  ADDR  18F9H     R   SEG=?CO?MESSVERST_NEW?2
SET_GAIN_9. . . . . . . . . . . . .  C  ADDR  18FCH     R   SEG=?CO?MESSVERST_NEW?2
SET_R3. . . . . . . . . . . . . . .  B  ADDR  0003H.5   R   SEG=FLAGS2
SET_SER . . . . . . . . . . . . . .  C  ADDR  0C02H     R   SEG=?CO?MESSVERST_NEW?2
SET_SER_1 . . . . . . . . . . . . .  C  ADDR  0C08H     R   SEG=?CO?MESSVERST_NEW?2
SET_SER_2 . . . . . . . . . . . . .  C  ADDR  0C1AH     R   SEG=?CO?MESSVERST_NEW?2
SET_SER_3 . . . . . . . . . . . . .  C  ADDR  0C22H     R   SEG=?CO?MESSVERST_NEW?2
SET_SER_4 . . . . . . . . . . . . .  C  ADDR  0C2DH     R   SEG=?CO?MESSVERST_NEW?2
SET_SER_5 . . . . . . . . . . . . .  C  ADDR  0C3AH     R   SEG=?CO?MESSVERST_NEW?2
SET_SER_6 . . . . . . . . . . . . .  C  ADDR  0C3DH     R   SEG=?CO?MESSVERST_NEW?2
SETTINGS_SAVED. . . . . . . . . . .  B  ADDR  0008H.2   R   SEG=FLAGS2
AX51 MACRO ASSEMBLER  MESSVERST_NEW                                                         01/07/24 00:14:01 PAGE   134

SFRPAGE . . . . . . . . . . . . . .  D  ADDR  00A7H     A   
SFRPGCN . . . . . . . . . . . . . .  D  ADDR  00BCH     A   
SFRSTACK. . . . . . . . . . . . . .  D  ADDR  00D7H     A   
SMB0ADM . . . . . . . . . . . . . .  D  ADDR  00D6H     A   
SMB0ADR . . . . . . . . . . . . . .  D  ADDR  00D7H     A   
SMB0CF. . . . . . . . . . . . . . .  D  ADDR  00C1H     A   
SMB0CN0 . . . . . . . . . . . . . .  D  ADDR  00C0H     A   
SMB0CN0_ACK . . . . . . . . . . . .  B  ADDR  00C0H.1   A   
SMB0CN0_ACKRQ . . . . . . . . . . .  B  ADDR  00C0H.3   A   
SMB0CN0_ARBLOST . . . . . . . . . .  B  ADDR  00C0H.2   A   
SMB0CN0_MASTER. . . . . . . . . . .  B  ADDR  00C0H.7   A   
SMB0CN0_SI. . . . . . . . . . . . .  B  ADDR  00C0H.0   A   
SMB0CN0_STA . . . . . . . . . . . .  B  ADDR  00C0H.5   A   
SMB0CN0_STO . . . . . . . . . . . .  B  ADDR  00C0H.4   A   
SMB0CN0_TXMODE. . . . . . . . . . .  B  ADDR  00C0H.6   A   
SMB0DAT . . . . . . . . . . . . . .  D  ADDR  00C2H     A   
SMB0FCN0. . . . . . . . . . . . . .  D  ADDR  00C3H     A   
SMB0FCN1. . . . . . . . . . . . . .  D  ADDR  00C4H     A   
SMB0FCT . . . . . . . . . . . . . .  D  ADDR  00EFH     A   
SMB0RXLN. . . . . . . . . . . . . .  D  ADDR  00C5H     A   
SMB0TC. . . . . . . . . . . . . . .  D  ADDR  00ACH     A   
SMBUS0_IRQN . . . . . . . . . . . .  N  NUMB  0007H     A   
SMOD1 . . . . . . . . . . . . . . .  D  ADDR  0093H     A   
SONDERMENU. . . . . . . . . . . . .  B  ADDR  0002H.1   R   SEG=FLAGS2
SP. . . . . . . . . . . . . . . . .  D  ADDR  0081H     A   
SPI0_IRQN . . . . . . . . . . . . .  N  NUMB  0006H     A   
SPI0CFG . . . . . . . . . . . . . .  D  ADDR  00A1H     A   
SPI0CKR . . . . . . . . . . . . . .  D  ADDR  00A2H     A   
SPI0CN0 . . . . . . . . . . . . . .  D  ADDR  00F8H     A   
SPI0CN0_MODF. . . . . . . . . . . .  B  ADDR  00F8H.5   A   
SPI0CN0_NSSMD0. . . . . . . . . . .  B  ADDR  00F8H.2   A   
SPI0CN0_NSSMD1. . . . . . . . . . .  B  ADDR  00F8H.3   A   
SPI0CN0_RXOVRN. . . . . . . . . . .  B  ADDR  00F8H.4   A   
SPI0CN0_SPIEN . . . . . . . . . . .  B  ADDR  00F8H.0   A   
SPI0CN0_SPIF. . . . . . . . . . . .  B  ADDR  00F8H.7   A   
SPI0CN0_TXNF. . . . . . . . . . . .  B  ADDR  00F8H.1   A   
SPI0CN0_WCOL. . . . . . . . . . . .  B  ADDR  00F8H.6   A   
SPI0DAT . . . . . . . . . . . . . .  D  ADDR  00A3H     A   
SPI0FCN0. . . . . . . . . . . . . .  D  ADDR  009AH     A   
SPI0FCN1. . . . . . . . . . . . . .  D  ADDR  009BH     A   
SPI0FCT . . . . . . . . . . . . . .  D  ADDR  00F7H     A   
SPI0PCF . . . . . . . . . . . . . .  D  ADDR  00DFH     A   
SPI1. . . . . . . . . . . . . . . .  C  ADDR  02DAH     R   SEG=?CO?MESSVERST_NEW?2
SPI2. . . . . . . . . . . . . . . .  C  ADDR  02E0H     R   SEG=?CO?MESSVERST_NEW?2
SPI3. . . . . . . . . . . . . . . .  C  ADDR  02F8H     R   SEG=?CO?MESSVERST_NEW?2
SPI4. . . . . . . . . . . . . . . .  C  ADDR  0310H     R   SEG=?CO?MESSVERST_NEW?2
SPI5. . . . . . . . . . . . . . . .  C  ADDR  0322H     R   SEG=?CO?MESSVERST_NEW?2
SPI6. . . . . . . . . . . . . . . .  C  ADDR  0329H     R   SEG=?CO?MESSVERST_NEW?2
SPI_CLK . . . . . . . . . . . . . .  B  ADDR  0080H.6   A   
SPI_DISPLAY . . . . . . . . . . . .  B  ADDR  0001H.7   R   SEG=FLAGS2
SPI_END . . . . . . . . . . . . . .  C  ADDR  032FH     R   SEG=?CO?MESSVERST_NEW?2
SPI_INT . . . . . . . . . . . . . .  C  ADDR  02BBH     R   SEG=?CO?MESSVERST_NEW?2
SPI_MISO. . . . . . . . . . . . . .  B  ADDR  0080H.7   A   
SPI_MOSI. . . . . . . . . . . . . .  B  ADDR  0090H.0   A   
STANDBY . . . . . . . . . . . . . .  B  ADDR  0008H.0   R   SEG=FLAGS2
START0. . . . . . . . . . . . . . .  C  ADDR  05F7H     R   SEG=?CO?MESSVERST_NEW?2
START1. . . . . . . . . . . . . . .  C  ADDR  05FCH     R   SEG=?CO?MESSVERST_NEW?2
START_01. . . . . . . . . . . . . .  C  ADDR  06ABH     R   SEG=?CO?MESSVERST_NEW?2
START_02. . . . . . . . . . . . . .  C  ADDR  06C0H     R   SEG=?CO?MESSVERST_NEW?2
START_03. . . . . . . . . . . . . .  C  ADDR  06C9H     R   SEG=?CO?MESSVERST_NEW?2
START_04. . . . . . . . . . . . . .  C  ADDR  06D0H     R   SEG=?CO?MESSVERST_NEW?2
START_05. . . . . . . . . . . . . .  C  ADDR  06D2H     R   SEG=?CO?MESSVERST_NEW?2
START_06. . . . . . . . . . . . . .  C  ADDR  07D4H     R   SEG=?CO?MESSVERST_NEW?2
AX51 MACRO ASSEMBLER  MESSVERST_NEW                                                         01/07/24 00:14:01 PAGE   135

START_07. . . . . . . . . . . . . .  C  ADDR  07EEH     R   SEG=?CO?MESSVERST_NEW?2
START_08. . . . . . . . . . . . . .  C  ADDR  0808H     R   SEG=?CO?MESSVERST_NEW?2
START_09. . . . . . . . . . . . . .  C  ADDR  0822H     R   SEG=?CO?MESSVERST_NEW?2
START_10. . . . . . . . . . . . . .  C  ADDR  083CH     R   SEG=?CO?MESSVERST_NEW?2
START_11. . . . . . . . . . . . . .  C  ADDR  0856H     R   SEG=?CO?MESSVERST_NEW?2
START_12. . . . . . . . . . . . . .  C  ADDR  0870H     R   SEG=?CO?MESSVERST_NEW?2
START_13. . . . . . . . . . . . . .  C  ADDR  0887H     R   SEG=?CO?MESSVERST_NEW?2
STUFE1. . . . . . . . . . . . . . .  B  ADDR  0006H.6   R   SEG=FLAGS2
STUFE2. . . . . . . . . . . . . . .  B  ADDR  0006H.7   R   SEG=FLAGS2
STUFE3. . . . . . . . . . . . . . .  B  ADDR  0007H.0   R   SEG=FLAGS2
STUFE4. . . . . . . . . . . . . . .  B  ADDR  0007H.1   R   SEG=FLAGS2
SWV . . . . . . . . . . . . . . . .  C  ADDR  0B48H     R   SEG=?CO?MESSVERST_NEW?2
SWV_1 . . . . . . . . . . . . . . .  C  ADDR  0B4EH     R   SEG=?CO?MESSVERST_NEW?2
SWV_2 . . . . . . . . . . . . . . .  C  ADDR  0B60H     R   SEG=?CO?MESSVERST_NEW?2
SWV_3 . . . . . . . . . . . . . . .  C  ADDR  0B68H     R   SEG=?CO?MESSVERST_NEW?2
SWV_4 . . . . . . . . . . . . . . .  C  ADDR  0B73H     R   SEG=?CO?MESSVERST_NEW?2
T1_BLINK. . . . . . . . . . . . . .  B  ADDR  0004H.1   R   SEG=FLAGS2
T3_OVERFLOW . . . . . . . . . . . .  C  ADDR  026EH     R   SEG=?CO?MESSVERST_NEW?2
TAB_1Z_1. . . . . . . . . . . . . .  C  ADDR  1546H     R   SEG=?CO?MESSVERST_NEW?2
TAB_1Z_10 . . . . . . . . . . . . .  C  ADDR  15E1H     R   SEG=?CO?MESSVERST_NEW?2
TAB_1Z_2. . . . . . . . . . . . . .  C  ADDR  1565H     R   SEG=?CO?MESSVERST_NEW?2
TAB_1Z_3. . . . . . . . . . . . . .  C  ADDR  1584H     R   SEG=?CO?MESSVERST_NEW?2
TAB_1Z_4. . . . . . . . . . . . . .  C  ADDR  15A3H     R   SEG=?CO?MESSVERST_NEW?2
TAB_1Z_5. . . . . . . . . . . . . .  C  ADDR  15C2H     R   SEG=?CO?MESSVERST_NEW?2
TAB_2Z_1. . . . . . . . . . . . . .  C  ADDR  1600H     R   SEG=?CO?MESSVERST_NEW?2
TAB_2Z_2. . . . . . . . . . . . . .  C  ADDR  161FH     R   SEG=?CO?MESSVERST_NEW?2
TAB_2Z_3. . . . . . . . . . . . . .  C  ADDR  163EH     R   SEG=?CO?MESSVERST_NEW?2
TAB_2Z_4. . . . . . . . . . . . . .  C  ADDR  165DH     R   SEG=?CO?MESSVERST_NEW?2
TAB_2Z_5. . . . . . . . . . . . . .  C  ADDR  167CH     R   SEG=?CO?MESSVERST_NEW?2
TAB_2Z_6. . . . . . . . . . . . . .  C  ADDR  169BH     R   SEG=?CO?MESSVERST_NEW?2
TAB_2Z_7. . . . . . . . . . . . . .  C  ADDR  16C7H     R   SEG=?CO?MESSVERST_NEW?2
TAB_2Z_8. . . . . . . . . . . . . .  C  ADDR  16E6H     R   SEG=?CO?MESSVERST_NEW?2
TAB_2Z_9. . . . . . . . . . . . . .  C  ADDR  1705H     R   SEG=?CO?MESSVERST_NEW?2
TAB_4Z_1. . . . . . . . . . . . . .  C  ADDR  1724H     R   SEG=?CO?MESSVERST_NEW?2
TAB_4Z_2. . . . . . . . . . . . . .  C  ADDR  173FH     R   SEG=?CO?MESSVERST_NEW?2
TAB_4Z_3. . . . . . . . . . . . . .  C  ADDR  17BCH     R   SEG=?CO?MESSVERST_NEW?2
TAB_AZ_OK . . . . . . . . . . . . .  C  ADDR  0DA9H     R   SEG=?CO?MESSVERST_NEW?2
TAB_CLR . . . . . . . . . . . . . .  C  ADDR  2161H     R   SEG=?CO?MESSVERST_NEW?2
TAB_DEZIMAL . . . . . . . . . . . .  C  ADDR  17CFH     R   SEG=?CO?MESSVERST_NEW?2
TAB_ERROR . . . . . . . . . . . . .  C  ADDR  2A18H     R   SEG=?CO?MESSVERST_NEW?2
TAB_GAIN10K . . . . . . . . . . . .  C  ADDR  1862H     R   SEG=?CO?MESSVERST_NEW?2
TAB_GAIN1K. . . . . . . . . . . . .  C  ADDR  1804H     R   SEG=?CO?MESSVERST_NEW?2
TAB_GAIN25K . . . . . . . . . . . .  C  ADDR  1881H     R   SEG=?CO?MESSVERST_NEW?2
TAB_GAIN2K. . . . . . . . . . . . .  C  ADDR  1823H     R   SEG=?CO?MESSVERST_NEW?2
TAB_GAIN500 . . . . . . . . . . . .  C  ADDR  17E5H     R   SEG=?CO?MESSVERST_NEW?2
TAB_GAIN50K . . . . . . . . . . . .  C  ADDR  18A0H     R   SEG=?CO?MESSVERST_NEW?2
TAB_GAIN5K. . . . . . . . . . . . .  C  ADDR  1843H     R   SEG=?CO?MESSVERST_NEW?2
TAB_GAIN60K . . . . . . . . . . . .  C  ADDR  18BFH     R   SEG=?CO?MESSVERST_NEW?2
TAB_HEX . . . . . . . . . . . . . .  C  ADDR  2702H     R   SEG=?CO?MESSVERST_NEW?2
TAB_ID. . . . . . . . . . . . . . .  C  ADDR  0EA3H     R   SEG=?CO?MESSVERST_NEW?2
TAB_INIT. . . . . . . . . . . . . .  C  ADDR  2132H     R   SEG=?CO?MESSVERST_NEW?2
TAB_KALIBRIER . . . . . . . . . . .  C  ADDR  26B3H     R   SEG=?CO?MESSVERST_NEW?2
TAB_OPTION_S1 . . . . . . . . . . .  C  ADDR  1FC7H     R   SEG=?CO?MESSVERST_NEW?2
TAB_OPTION_S2 . . . . . . . . . . .  C  ADDR  2016H     R   SEG=?CO?MESSVERST_NEW?2
TAB_OPTION_S3 . . . . . . . . . . .  C  ADDR  2065H     R   SEG=?CO?MESSVERST_NEW?2
TAB_OPTION_UL . . . . . . . . . . .  C  ADDR  20B4H     R   SEG=?CO?MESSVERST_NEW?2
TAB_PRESS . . . . . . . . . . . . .  C  ADDR  13FCH     R   SEG=?CO?MESSVERST_NEW?2
TAB_SAVED . . . . . . . . . . . . .  C  ADDR  29B3H     R   SEG=?CO?MESSVERST_NEW?2
TAB_WRITE . . . . . . . . . . . . .  C  ADDR  132DH     R   SEG=?CO?MESSVERST_NEW?2
TCON. . . . . . . . . . . . . . . .  D  ADDR  0088H     A   
TCON_IE0. . . . . . . . . . . . . .  B  ADDR  0088H.1   A   
TCON_IE1. . . . . . . . . . . . . .  B  ADDR  0088H.3   A   
TCON_IT0. . . . . . . . . . . . . .  B  ADDR  0088H.0   A   
AX51 MACRO ASSEMBLER  MESSVERST_NEW                                                         01/07/24 00:14:01 PAGE   136

TCON_IT1. . . . . . . . . . . . . .  B  ADDR  0088H.2   A   
TCON_TF0. . . . . . . . . . . . . .  B  ADDR  0088H.5   A   
TCON_TF1. . . . . . . . . . . . . .  B  ADDR  0088H.7   A   
TCON_TR0. . . . . . . . . . . . . .  B  ADDR  0088H.4   A   
TCON_TR1. . . . . . . . . . . . . .  B  ADDR  0088H.6   A   
TH0 . . . . . . . . . . . . . . . .  D  ADDR  008CH     A   
TH1 . . . . . . . . . . . . . . . .  D  ADDR  008DH     A   
TIMER0. . . . . . . . . . . . . . .  C  ADDR  024CH     R   SEG=?CO?MESSVERST_NEW?2
TIMER0_IRQN . . . . . . . . . . . .  N  NUMB  0001H     A   
TIMER1_IRQN . . . . . . . . . . . .  N  NUMB  0003H     A   
TIMER2. . . . . . . . . . . . . . .  C  ADDR  0257H     R   SEG=?CO?MESSVERST_NEW?2
TIMER2_4. . . . . . . . . . . . . .  C  ADDR  0269H     R   SEG=?CO?MESSVERST_NEW?2
TIMER2_IRQN . . . . . . . . . . . .  N  NUMB  0005H     A   
TIMER3_0. . . . . . . . . . . . . .  C  ADDR  0292H     R   SEG=?CO?MESSVERST_NEW?2
TIMER3_1. . . . . . . . . . . . . .  C  ADDR  02A3H     R   SEG=?CO?MESSVERST_NEW?2
TIMER3_2. . . . . . . . . . . . . .  C  ADDR  02AEH     R   SEG=?CO?MESSVERST_NEW?2
TIMER3_3. . . . . . . . . . . . . .  C  ADDR  02B6H     R   SEG=?CO?MESSVERST_NEW?2
TIMER3_IRQN . . . . . . . . . . . .  N  NUMB  000EH     A   
TIMER4_IRQN . . . . . . . . . . . .  N  NUMB  0011H     A   
TIMER5_IRQN . . . . . . . . . . . .  N  NUMB  0012H     A   
TL0 . . . . . . . . . . . . . . . .  D  ADDR  008AH     A   
TL1 . . . . . . . . . . . . . . . .  D  ADDR  008BH     A   
TMOD. . . . . . . . . . . . . . . .  D  ADDR  0089H     A   
TMR2. . . . . . . . . . . . . . . .  D  ADDR  00CEH     A   
TMR2CN0 . . . . . . . . . . . . . .  D  ADDR  00C8H     A   
TMR2CN0_T2SPLIT . . . . . . . . . .  B  ADDR  00C8H.3   A   
TMR2CN0_T2XCLK0 . . . . . . . . . .  B  ADDR  00C8H.0   A   
TMR2CN0_T2XCLK1 . . . . . . . . . .  B  ADDR  00C8H.1   A   
TMR2CN0_TF2CEN. . . . . . . . . . .  B  ADDR  00C8H.4   A   
TMR2CN0_TF2H. . . . . . . . . . . .  B  ADDR  00C8H.7   A   
TMR2CN0_TF2L. . . . . . . . . . . .  B  ADDR  00C8H.6   A   
TMR2CN0_TF2LEN. . . . . . . . . . .  B  ADDR  00C8H.5   A   
TMR2CN0_TR2 . . . . . . . . . . . .  B  ADDR  00C8H.2   A   
TMR2CN1 . . . . . . . . . . . . . .  D  ADDR  00FDH     A   
TMR2H . . . . . . . . . . . . . . .  D  ADDR  00CFH     A   
TMR2L . . . . . . . . . . . . . . .  D  ADDR  00CEH     A   
TMR2RL. . . . . . . . . . . . . . .  D  ADDR  00CAH     A   
TMR2RLH . . . . . . . . . . . . . .  D  ADDR  00CBH     A   
TMR2RLL . . . . . . . . . . . . . .  D  ADDR  00CAH     A   
TMR3. . . . . . . . . . . . . . . .  D  ADDR  0094H     A   
TMR3CN0 . . . . . . . . . . . . . .  D  ADDR  0091H     A   
TMR3CN1 . . . . . . . . . . . . . .  D  ADDR  00FEH     A   
TMR3H . . . . . . . . . . . . . . .  D  ADDR  0095H     A   
TMR3L . . . . . . . . . . . . . . .  D  ADDR  0094H     A   
TMR3RL. . . . . . . . . . . . . . .  D  ADDR  0092H     A   
TMR3RLH . . . . . . . . . . . . . .  D  ADDR  0093H     A   
TMR3RLL . . . . . . . . . . . . . .  D  ADDR  0092H     A   
TMR4. . . . . . . . . . . . . . . .  D  ADDR  00A4H     A   
TMR4CN0 . . . . . . . . . . . . . .  D  ADDR  0098H     A   
TMR4CN0_T4SPLIT . . . . . . . . . .  B  ADDR  0098H.3   A   
TMR4CN0_T4XCLK0 . . . . . . . . . .  B  ADDR  0098H.0   A   
TMR4CN0_T4XCLK1 . . . . . . . . . .  B  ADDR  0098H.1   A   
TMR4CN0_TF4CEN. . . . . . . . . . .  B  ADDR  0098H.4   A   
TMR4CN0_TF4H. . . . . . . . . . . .  B  ADDR  0098H.7   A   
TMR4CN0_TF4L. . . . . . . . . . . .  B  ADDR  0098H.6   A   
TMR4CN0_TF4LEN. . . . . . . . . . .  B  ADDR  0098H.5   A   
TMR4CN0_TR4 . . . . . . . . . . . .  B  ADDR  0098H.2   A   
TMR4CN1 . . . . . . . . . . . . . .  D  ADDR  00FFH     A   
TMR4H . . . . . . . . . . . . . . .  D  ADDR  00A5H     A   
TMR4L . . . . . . . . . . . . . . .  D  ADDR  00A4H     A   
TMR4RL. . . . . . . . . . . . . . .  D  ADDR  00A2H     A   
TMR4RLH . . . . . . . . . . . . . .  D  ADDR  00A3H     A   
TMR4RLL . . . . . . . . . . . . . .  D  ADDR  00A2H     A   
AX51 MACRO ASSEMBLER  MESSVERST_NEW                                                         01/07/24 00:14:01 PAGE   137

TMR5. . . . . . . . . . . . . . . .  D  ADDR  00D4H     A   
TMR5CN0 . . . . . . . . . . . . . .  D  ADDR  00C0H     A   
TMR5CN0_T5SPLIT . . . . . . . . . .  B  ADDR  00C0H.3   A   
TMR5CN0_T5XCLK0 . . . . . . . . . .  B  ADDR  00C0H.0   A   
TMR5CN0_T5XCLK1 . . . . . . . . . .  B  ADDR  00C0H.1   A   
TMR5CN0_TF5CEN. . . . . . . . . . .  B  ADDR  00C0H.4   A   
TMR5CN0_TF5H. . . . . . . . . . . .  B  ADDR  00C0H.7   A   
TMR5CN0_TF5L. . . . . . . . . . . .  B  ADDR  00C0H.6   A   
TMR5CN0_TF5LEN. . . . . . . . . . .  B  ADDR  00C0H.5   A   
TMR5CN0_TR5 . . . . . . . . . . . .  B  ADDR  00C0H.2   A   
TMR5CN1 . . . . . . . . . . . . . .  D  ADDR  00F1H     A   
TMR5H . . . . . . . . . . . . . . .  D  ADDR  00D5H     A   
TMR5L . . . . . . . . . . . . . . .  D  ADDR  00D4H     A   
TMR5RL. . . . . . . . . . . . . . .  D  ADDR  00D2H     A   
TMR5RLH . . . . . . . . . . . . . .  D  ADDR  00D3H     A   
TMR5RLL . . . . . . . . . . . . . .  D  ADDR  00D2H     A   
UART0_0 . . . . . . . . . . . . . .  C  ADDR  0076H     R   SEG=?CO?MESSVERST_NEW?2
UART0_00. . . . . . . . . . . . . .  C  ADDR  009BH     R   SEG=?CO?MESSVERST_NEW?2
UART0_01. . . . . . . . . . . . . .  C  ADDR  00A1H     R   SEG=?CO?MESSVERST_NEW?2
UART0_02. . . . . . . . . . . . . .  C  ADDR  00A9H     R   SEG=?CO?MESSVERST_NEW?2
UART0_03. . . . . . . . . . . . . .  C  ADDR  00ACH     R   SEG=?CO?MESSVERST_NEW?2
UART0_1 . . . . . . . . . . . . . .  C  ADDR  00BCH     R   SEG=?CO?MESSVERST_NEW?2
UART0_10. . . . . . . . . . . . . .  C  ADDR  0129H     R   SEG=?CO?MESSVERST_NEW?2
UART0_11. . . . . . . . . . . . . .  C  ADDR  0139H     R   SEG=?CO?MESSVERST_NEW?2
UART0_12. . . . . . . . . . . . . .  C  ADDR  0142H     R   SEG=?CO?MESSVERST_NEW?2
UART0_13. . . . . . . . . . . . . .  C  ADDR  0152H     R   SEG=?CO?MESSVERST_NEW?2
UART0_14. . . . . . . . . . . . . .  C  ADDR  015BH     R   SEG=?CO?MESSVERST_NEW?2
UART0_15. . . . . . . . . . . . . .  C  ADDR  016BH     R   SEG=?CO?MESSVERST_NEW?2
UART0_16. . . . . . . . . . . . . .  C  ADDR  0174H     R   SEG=?CO?MESSVERST_NEW?2
UART0_17. . . . . . . . . . . . . .  C  ADDR  0184H     R   SEG=?CO?MESSVERST_NEW?2
UART0_18. . . . . . . . . . . . . .  C  ADDR  018DH     R   SEG=?CO?MESSVERST_NEW?2
UART0_19. . . . . . . . . . . . . .  C  ADDR  019DH     R   SEG=?CO?MESSVERST_NEW?2
UART0_2 . . . . . . . . . . . . . .  C  ADDR  00C5H     R   SEG=?CO?MESSVERST_NEW?2
UART0_20. . . . . . . . . . . . . .  C  ADDR  01A6H     R   SEG=?CO?MESSVERST_NEW?2
UART0_21. . . . . . . . . . . . . .  C  ADDR  01B6H     R   SEG=?CO?MESSVERST_NEW?2
UART0_22. . . . . . . . . . . . . .  C  ADDR  01BFH     R   SEG=?CO?MESSVERST_NEW?2
UART0_23. . . . . . . . . . . . . .  C  ADDR  01CFH     R   SEG=?CO?MESSVERST_NEW?2
UART0_24. . . . . . . . . . . . . .  C  ADDR  01D8H     R   SEG=?CO?MESSVERST_NEW?2
UART0_25. . . . . . . . . . . . . .  C  ADDR  01E8H     R   SEG=?CO?MESSVERST_NEW?2
UART0_26. . . . . . . . . . . . . .  C  ADDR  01F1H     R   SEG=?CO?MESSVERST_NEW?2
UART0_27. . . . . . . . . . . . . .  C  ADDR  0201H     R   SEG=?CO?MESSVERST_NEW?2
UART0_28. . . . . . . . . . . . . .  C  ADDR  020AH     R   SEG=?CO?MESSVERST_NEW?2
UART0_29. . . . . . . . . . . . . .  C  ADDR  021AH     R   SEG=?CO?MESSVERST_NEW?2
UART0_3 . . . . . . . . . . . . . .  C  ADDR  00D5H     R   SEG=?CO?MESSVERST_NEW?2
UART0_30. . . . . . . . . . . . . .  C  ADDR  0223H     R   SEG=?CO?MESSVERST_NEW?2
UART0_31. . . . . . . . . . . . . .  C  ADDR  0233H     R   SEG=?CO?MESSVERST_NEW?2
UART0_39. . . . . . . . . . . . . .  C  ADDR  023CH     R   SEG=?CO?MESSVERST_NEW?2
UART0_4 . . . . . . . . . . . . . .  C  ADDR  00DEH     R   SEG=?CO?MESSVERST_NEW?2
UART0_40. . . . . . . . . . . . . .  C  ADDR  023EH     R   SEG=?CO?MESSVERST_NEW?2
UART0_5 . . . . . . . . . . . . . .  C  ADDR  00EEH     R   SEG=?CO?MESSVERST_NEW?2
UART0_6 . . . . . . . . . . . . . .  C  ADDR  00F7H     R   SEG=?CO?MESSVERST_NEW?2
UART0_7 . . . . . . . . . . . . . .  C  ADDR  0107H     R   SEG=?CO?MESSVERST_NEW?2
UART0_8 . . . . . . . . . . . . . .  C  ADDR  0110H     R   SEG=?CO?MESSVERST_NEW?2
UART0_9 . . . . . . . . . . . . . .  C  ADDR  0120H     R   SEG=?CO?MESSVERST_NEW?2
UART0_END . . . . . . . . . . . . .  C  ADDR  023FH     R   SEG=?CO?MESSVERST_NEW?2
UART0_END1. . . . . . . . . . . . .  C  ADDR  0241H     R   SEG=?CO?MESSVERST_NEW?2
UART0_IRQN. . . . . . . . . . . . .  N  NUMB  0004H     A   
UART0_SEND. . . . . . . . . . . . .  C  ADDR  0086H     R   SEG=?CO?MESSVERST_NEW?2
UART0_SEND1 . . . . . . . . . . . .  C  ADDR  0089H     R   SEG=?CO?MESSVERST_NEW?2
UART0_SEND2 . . . . . . . . . . . .  C  ADDR  0096H     R   SEG=?CO?MESSVERST_NEW?2
UART0PCF. . . . . . . . . . . . . .  D  ADDR  00D9H     A   
UART1_IRQN. . . . . . . . . . . . .  N  NUMB  000FH     A   
UART1FCN0 . . . . . . . . . . . . .  D  ADDR  009DH     A   
AX51 MACRO ASSEMBLER  MESSVERST_NEW                                                         01/07/24 00:14:01 PAGE   138

UART1FCN1 . . . . . . . . . . . . .  D  ADDR  00D8H     A   
UART1FCN1_RFRQ. . . . . . . . . . .  B  ADDR  00D8H.3   A   
UART1FCN1_RIE . . . . . . . . . . .  B  ADDR  00D8H.0   A   
UART1FCN1_RXTO0 . . . . . . . . . .  B  ADDR  00D8H.1   A   
UART1FCN1_RXTO1 . . . . . . . . . .  B  ADDR  00D8H.2   A   
UART1FCN1_TFRQ. . . . . . . . . . .  B  ADDR  00D8H.7   A   
UART1FCN1_TIE . . . . . . . . . . .  B  ADDR  00D8H.4   A   
UART1FCN1_TXHOLD. . . . . . . . . .  B  ADDR  00D8H.5   A   
UART1FCN1_TXNF. . . . . . . . . . .  B  ADDR  00D8H.6   A   
UART1FCT. . . . . . . . . . . . . .  D  ADDR  00FAH     A   
UART1LIN. . . . . . . . . . . . . .  D  ADDR  009EH     A   
UART1PCF. . . . . . . . . . . . . .  D  ADDR  00DAH     A   
UART_00 . . . . . . . . . . . . . .  C  ADDR  0891H     R   SEG=?CO?MESSVERST_NEW?2
UART_10 . . . . . . . . . . . . . .  C  ADDR  0CC2H     R   SEG=?CO?MESSVERST_NEW?2
UART_10K. . . . . . . . . . . . . .  C  ADDR  098CH     R   SEG=?CO?MESSVERST_NEW?2
UART_10K_1. . . . . . . . . . . . .  C  ADDR  0992H     R   SEG=?CO?MESSVERST_NEW?2
UART_10K_2. . . . . . . . . . . . .  C  ADDR  09A4H     R   SEG=?CO?MESSVERST_NEW?2
UART_10K_3. . . . . . . . . . . . .  C  ADDR  09ACH     R   SEG=?CO?MESSVERST_NEW?2
UART_10K_4. . . . . . . . . . . . .  C  ADDR  09B7H     R   SEG=?CO?MESSVERST_NEW?2
UART_1K . . . . . . . . . . . . . .  C  ADDR  08D2H     R   SEG=?CO?MESSVERST_NEW?2
UART_1K_1 . . . . . . . . . . . . .  C  ADDR  08D8H     R   SEG=?CO?MESSVERST_NEW?2
UART_1K_2 . . . . . . . . . . . . .  C  ADDR  08EAH     R   SEG=?CO?MESSVERST_NEW?2
UART_1K_3 . . . . . . . . . . . . .  C  ADDR  08F2H     R   SEG=?CO?MESSVERST_NEW?2
UART_1K_4 . . . . . . . . . . . . .  C  ADDR  08FDH     R   SEG=?CO?MESSVERST_NEW?2
UART_25K. . . . . . . . . . . . . .  C  ADDR  09CAH     R   SEG=?CO?MESSVERST_NEW?2
UART_25K_1. . . . . . . . . . . . .  C  ADDR  09D0H     R   SEG=?CO?MESSVERST_NEW?2
UART_25K_2. . . . . . . . . . . . .  C  ADDR  09E2H     R   SEG=?CO?MESSVERST_NEW?2
UART_25K_3. . . . . . . . . . . . .  C  ADDR  09EAH     R   SEG=?CO?MESSVERST_NEW?2
UART_25K_4. . . . . . . . . . . . .  C  ADDR  09F5H     R   SEG=?CO?MESSVERST_NEW?2
UART_2K . . . . . . . . . . . . . .  C  ADDR  0910H     R   SEG=?CO?MESSVERST_NEW?2
UART_2K_1 . . . . . . . . . . . . .  C  ADDR  0916H     R   SEG=?CO?MESSVERST_NEW?2
UART_2K_2 . . . . . . . . . . . . .  C  ADDR  0928H     R   SEG=?CO?MESSVERST_NEW?2
UART_2K_3 . . . . . . . . . . . . .  C  ADDR  0930H     R   SEG=?CO?MESSVERST_NEW?2
UART_2K_4 . . . . . . . . . . . . .  C  ADDR  093BH     R   SEG=?CO?MESSVERST_NEW?2
UART_500. . . . . . . . . . . . . .  C  ADDR  0894H     R   SEG=?CO?MESSVERST_NEW?2
UART_500_1. . . . . . . . . . . . .  C  ADDR  089AH     R   SEG=?CO?MESSVERST_NEW?2
UART_500_2. . . . . . . . . . . . .  C  ADDR  08ACH     R   SEG=?CO?MESSVERST_NEW?2
UART_500_3. . . . . . . . . . . . .  C  ADDR  08B4H     R   SEG=?CO?MESSVERST_NEW?2
UART_500_4. . . . . . . . . . . . .  C  ADDR  08BFH     R   SEG=?CO?MESSVERST_NEW?2
UART_50K. . . . . . . . . . . . . .  C  ADDR  0A08H     R   SEG=?CO?MESSVERST_NEW?2
UART_50K_1. . . . . . . . . . . . .  C  ADDR  0A0EH     R   SEG=?CO?MESSVERST_NEW?2
UART_50K_2. . . . . . . . . . . . .  C  ADDR  0A20H     R   SEG=?CO?MESSVERST_NEW?2
UART_50K_3. . . . . . . . . . . . .  C  ADDR  0A28H     R   SEG=?CO?MESSVERST_NEW?2
UART_50K_4. . . . . . . . . . . . .  C  ADDR  0A33H     R   SEG=?CO?MESSVERST_NEW?2
UART_5K . . . . . . . . . . . . . .  C  ADDR  094EH     R   SEG=?CO?MESSVERST_NEW?2
UART_5K_1 . . . . . . . . . . . . .  C  ADDR  0954H     R   SEG=?CO?MESSVERST_NEW?2
UART_5K_2 . . . . . . . . . . . . .  C  ADDR  0966H     R   SEG=?CO?MESSVERST_NEW?2
UART_5K_3 . . . . . . . . . . . . .  C  ADDR  096EH     R   SEG=?CO?MESSVERST_NEW?2
UART_5K_4 . . . . . . . . . . . . .  C  ADDR  0979H     R   SEG=?CO?MESSVERST_NEW?2
UART_AZ_OK. . . . . . . . . . . . .  C  ADDR  0D89H     R   SEG=?CO?MESSVERST_NEW?2
UART_AZ_OK1 . . . . . . . . . . . .  C  ADDR  0D8FH     R   SEG=?CO?MESSVERST_NEW?2
UART_AZ_OK2 . . . . . . . . . . . .  C  ADDR  0D9BH     R   SEG=?CO?MESSVERST_NEW?2
UART_AZ_OK3 . . . . . . . . . . . .  C  ADDR  0DA3H     R   SEG=?CO?MESSVERST_NEW?2
UART_ID . . . . . . . . . . . . . .  C  ADDR  0E4CH     R   SEG=?CO?MESSVERST_NEW?2
UART_ID1. . . . . . . . . . . . . .  C  ADDR  0E52H     R   SEG=?CO?MESSVERST_NEW?2
UART_ID2. . . . . . . . . . . . . .  C  ADDR  0E61H     R   SEG=?CO?MESSVERST_NEW?2
UART_ID3. . . . . . . . . . . . . .  C  ADDR  0E6EH     R   SEG=?CO?MESSVERST_NEW?2
UART_ID4. . . . . . . . . . . . . .  C  ADDR  0E7BH     R   SEG=?CO?MESSVERST_NEW?2
UART_ID5. . . . . . . . . . . . . .  C  ADDR  0E88H     R   SEG=?CO?MESSVERST_NEW?2
UART_ID6. . . . . . . . . . . . . .  C  ADDR  0E95H     R   SEG=?CO?MESSVERST_NEW?2
UART_ID7. . . . . . . . . . . . . .  C  ADDR  0E9DH     R   SEG=?CO?MESSVERST_NEW?2
UART_RX . . . . . . . . . . . . . .  B  ADDR  0080H.5   A   
UART_SEND . . . . . . . . . . . . .  C  ADDR  0F8EH     R   SEG=?CO?MESSVERST_NEW?2
AX51 MACRO ASSEMBLER  MESSVERST_NEW                                                         01/07/24 00:14:01 PAGE   139

UART_SENDEN . . . . . . . . . . . .  B  ADDR  0009H.5   R   SEG=FLAGS2
UART_SER. . . . . . . . . . . . . .  C  ADDR  0F21H     R   SEG=?CO?MESSVERST_NEW?2
UART_SER1 . . . . . . . . . . . . .  C  ADDR  0F27H     R   SEG=?CO?MESSVERST_NEW?2
UART_SER2 . . . . . . . . . . . . .  C  ADDR  0F36H     R   SEG=?CO?MESSVERST_NEW?2
UART_SER3 . . . . . . . . . . . . .  C  ADDR  0F43H     R   SEG=?CO?MESSVERST_NEW?2
UART_SER4 . . . . . . . . . . . . .  C  ADDR  0F50H     R   SEG=?CO?MESSVERST_NEW?2
UART_SER5 . . . . . . . . . . . . .  C  ADDR  0F5DH     R   SEG=?CO?MESSVERST_NEW?2
UART_SER6 . . . . . . . . . . . . .  C  ADDR  0F6AH     R   SEG=?CO?MESSVERST_NEW?2
UART_SER7 . . . . . . . . . . . . .  C  ADDR  0F72H     R   SEG=?CO?MESSVERST_NEW?2
UART_SER8 . . . . . . . . . . . . .  C  ADDR  0F78H     R   SEG=?CO?MESSVERST_NEW?2
UART_SWV. . . . . . . . . . . . . .  C  ADDR  0EF2H     R   SEG=?CO?MESSVERST_NEW?2
UART_SWV1 . . . . . . . . . . . . .  C  ADDR  0EF8H     R   SEG=?CO?MESSVERST_NEW?2
UART_SWV2 . . . . . . . . . . . . .  C  ADDR  0EFAH     R   SEG=?CO?MESSVERST_NEW?2
UART_SWV3 . . . . . . . . . . . . .  C  ADDR  0F02H     R   SEG=?CO?MESSVERST_NEW?2
UART_SWV4 . . . . . . . . . . . . .  C  ADDR  0F08H     R   SEG=?CO?MESSVERST_NEW?2
UART_TX . . . . . . . . . . . . . .  B  ADDR  0080H.4   A   
UART_VOLT_1 . . . . . . . . . . . .  C  ADDR  0DBDH     R   SEG=?CO?MESSVERST_NEW?2
UART_VOLT_10. . . . . . . . . . . .  C  ADDR  0DF0H     R   SEG=?CO?MESSVERST_NEW?2
UART_VOLT_11. . . . . . . . . . . .  C  ADDR  0DF4H     R   SEG=?CO?MESSVERST_NEW?2
UART_VOLT_12. . . . . . . . . . . .  C  ADDR  0DF8H     R   SEG=?CO?MESSVERST_NEW?2
UART_VOLT_13. . . . . . . . . . . .  C  ADDR  0E02H     R   SEG=?CO?MESSVERST_NEW?2
UART_VOLT_14. . . . . . . . . . . .  C  ADDR  0E0CH     R   SEG=?CO?MESSVERST_NEW?2
UART_VOLT_15. . . . . . . . . . . .  C  ADDR  0E16H     R   SEG=?CO?MESSVERST_NEW?2
UART_VOLT_16. . . . . . . . . . . .  C  ADDR  0E20H     R   SEG=?CO?MESSVERST_NEW?2
UART_VOLT_17. . . . . . . . . . . .  C  ADDR  0E2AH     R   SEG=?CO?MESSVERST_NEW?2
UART_VOLT_18. . . . . . . . . . . .  C  ADDR  0E32H     R   SEG=?CO?MESSVERST_NEW?2
UART_VOLT_19. . . . . . . . . . . .  C  ADDR  0E38H     R   SEG=?CO?MESSVERST_NEW?2
UART_VOLT_2 . . . . . . . . . . . .  C  ADDR  0DC3H     R   SEG=?CO?MESSVERST_NEW?2
UART_VOLT_3 . . . . . . . . . . . .  C  ADDR  0DCFH     R   SEG=?CO?MESSVERST_NEW?2
UART_VOLT_4 . . . . . . . . . . . .  C  ADDR  0DD9H     R   SEG=?CO?MESSVERST_NEW?2
UART_WO_0 . . . . . . . . . . . . .  C  ADDR  0CC5H     R   SEG=?CO?MESSVERST_NEW?2
UART_WO_1 . . . . . . . . . . . . .  C  ADDR  0D0EH     R   SEG=?CO?MESSVERST_NEW?2
UART_WO_2 . . . . . . . . . . . . .  C  ADDR  0D21H     R   SEG=?CO?MESSVERST_NEW?2
UART_WO_3 . . . . . . . . . . . . .  C  ADDR  0D34H     R   SEG=?CO?MESSVERST_NEW?2
UART_WO_4 . . . . . . . . . . . . .  C  ADDR  0D47H     R   SEG=?CO?MESSVERST_NEW?2
UART_WO_5 . . . . . . . . . . . . .  C  ADDR  0D5EH     R   SEG=?CO?MESSVERST_NEW?2
UART_WO_6 . . . . . . . . . . . . .  C  ADDR  0D75H     R   SEG=?CO?MESSVERST_NEW?2
VDM0CN. . . . . . . . . . . . . . .  D  ADDR  00FFH     A   
VOLTAGE . . . . . . . . . . . . . .  C  ADDR  0A46H     R   SEG=?CO?MESSVERST_NEW?2
VOLTAGE_1 . . . . . . . . . . . . .  C  ADDR  0A4CH     R   SEG=?CO?MESSVERST_NEW?2
VOLTAGE_2 . . . . . . . . . . . . .  C  ADDR  0A5EH     R   SEG=?CO?MESSVERST_NEW?2
VOLTAGE_3 . . . . . . . . . . . . .  C  ADDR  0A66H     R   SEG=?CO?MESSVERST_NEW?2
VOLTAGE_4 . . . . . . . . . . . . .  C  ADDR  0A71H     R   SEG=?CO?MESSVERST_NEW?2
VREF. . . . . . . . . . . . . . . .  B  ADDR  00B0H.0   A   
WAIT_FOR_SPI. . . . . . . . . . . .  B  ADDR  0002H.0   R   SEG=FLAGS2
WDTCN . . . . . . . . . . . . . . .  D  ADDR  0097H     A   
WRITE0001 . . . . . . . . . . . . .  C  ADDR  1291H     R   SEG=?CO?MESSVERST_NEW?2
WRITE001. . . . . . . . . . . . . .  C  ADDR  128BH     R   SEG=?CO?MESSVERST_NEW?2
WRITE002. . . . . . . . . . . . . .  C  ADDR  1297H     R   SEG=?CO?MESSVERST_NEW?2
WRITE002_0. . . . . . . . . . . . .  C  ADDR  129DH     R   SEG=?CO?MESSVERST_NEW?2
WRITE002_1. . . . . . . . . . . . .  C  ADDR  12A3H     R   SEG=?CO?MESSVERST_NEW?2
WRITE002_2. . . . . . . . . . . . .  C  ADDR  12ACH     R   SEG=?CO?MESSVERST_NEW?2
WRITE002_3. . . . . . . . . . . . .  C  ADDR  12B2H     R   SEG=?CO?MESSVERST_NEW?2
WRITE003. . . . . . . . . . . . . .  C  ADDR  12B5H     R   SEG=?CO?MESSVERST_NEW?2
WRITE003_1. . . . . . . . . . . . .  C  ADDR  12BBH     R   SEG=?CO?MESSVERST_NEW?2
WRITE004. . . . . . . . . . . . . .  C  ADDR  12C1H     R   SEG=?CO?MESSVERST_NEW?2
WRITE005. . . . . . . . . . . . . .  C  ADDR  12C9H     R   SEG=?CO?MESSVERST_NEW?2
WRITE006. . . . . . . . . . . . . .  C  ADDR  12D1H     R   SEG=?CO?MESSVERST_NEW?2
WRITE007. . . . . . . . . . . . . .  C  ADDR  12D8H     R   SEG=?CO?MESSVERST_NEW?2
WRITE010. . . . . . . . . . . . . .  C  ADDR  12E4H     R   SEG=?CO?MESSVERST_NEW?2
WRITE011. . . . . . . . . . . . . .  C  ADDR  12F1H     R   SEG=?CO?MESSVERST_NEW?2
WRITE012. . . . . . . . . . . . . .  C  ADDR  12FEH     R   SEG=?CO?MESSVERST_NEW?2
WRITE013. . . . . . . . . . . . . .  C  ADDR  130BH     R   SEG=?CO?MESSVERST_NEW?2
AX51 MACRO ASSEMBLER  MESSVERST_NEW                                                         01/07/24 00:14:01 PAGE   140

WRITE014. . . . . . . . . . . . . .  C  ADDR  1318H     R   SEG=?CO?MESSVERST_NEW?2
WRITE015. . . . . . . . . . . . . .  C  ADDR  1325H     R   SEG=?CO?MESSVERST_NEW?2
WRITE020. . . . . . . . . . . . . .  C  ADDR  137CH     R   SEG=?CO?MESSVERST_NEW?2
WRITE021. . . . . . . . . . . . . .  C  ADDR  1382H     R   SEG=?CO?MESSVERST_NEW?2
WRITE023. . . . . . . . . . . . . .  C  ADDR  1395H     R   SEG=?CO?MESSVERST_NEW?2
WRITE024. . . . . . . . . . . . . .  C  ADDR  139DH     R   SEG=?CO?MESSVERST_NEW?2
WRITE025. . . . . . . . . . . . . .  C  ADDR  13A2H     R   SEG=?CO?MESSVERST_NEW?2
WRITE025_1. . . . . . . . . . . . .  C  ADDR  13ABH     R   SEG=?CO?MESSVERST_NEW?2
WRITE026. . . . . . . . . . . . . .  C  ADDR  13DBH     R   SEG=?CO?MESSVERST_NEW?2
WRITE027. . . . . . . . . . . . . .  C  ADDR  13F4H     R   SEG=?CO?MESSVERST_NEW?2
WRITE_MENU. . . . . . . . . . . . .  B  ADDR  0003H.7   R   SEG=FLAGS2
WRITE_OH. . . . . . . . . . . . . .  B  ADDR  0003H.0   R   SEG=FLAGS2
WRITE_OK. . . . . . . . . . . . . .  B  ADDR  0002H.7   R   SEG=FLAGS2
XBR0. . . . . . . . . . . . . . . .  D  ADDR  00E1H     A   
XBR1. . . . . . . . . . . . . . . .  D  ADDR  00E2H     A   
XBR2. . . . . . . . . . . . . . . .  D  ADDR  00E3H     A   
XOSC0CN . . . . . . . . . . . . . .  D  ADDR  0086H     A   
ZERO. . . . . . . . . . . . . . . .  C  ADDR  19CEH     R   SEG=?CO?MESSVERST_NEW?2
ZERO_ENDE . . . . . . . . . . . . .  C  ADDR  1C3BH     R   SEG=?CO?MESSVERST_NEW?2
ZERO_ENDE10 . . . . . . . . . . . .  C  ADDR  1D2DH     R   SEG=?CO?MESSVERST_NEW?2
ZERO_ENDE11 . . . . . . . . . . . .  C  ADDR  1D50H     R   SEG=?CO?MESSVERST_NEW?2
ZERO_ENDE12 . . . . . . . . . . . .  C  ADDR  1D73H     R   SEG=?CO?MESSVERST_NEW?2
ZERO_ENDE20 . . . . . . . . . . . .  C  ADDR  1D96H     R   SEG=?CO?MESSVERST_NEW?2
ZERO_ENDE21 . . . . . . . . . . . .  C  ADDR  1D9CH     R   SEG=?CO?MESSVERST_NEW?2
ZERO_ENDE3. . . . . . . . . . . . .  C  ADDR  1C50H     R   SEG=?CO?MESSVERST_NEW?2
ZERO_ENDE4. . . . . . . . . . . . .  C  ADDR  1C55H     R   SEG=?CO?MESSVERST_NEW?2
ZERO_ENDE5. . . . . . . . . . . . .  C  ADDR  1C79H     R   SEG=?CO?MESSVERST_NEW?2
ZERO_ENDE6. . . . . . . . . . . . .  C  ADDR  1CA1H     R   SEG=?CO?MESSVERST_NEW?2
ZERO_ENDE7. . . . . . . . . . . . .  C  ADDR  1CC4H     R   SEG=?CO?MESSVERST_NEW?2
ZERO_ENDE8. . . . . . . . . . . . .  C  ADDR  1CE7H     R   SEG=?CO?MESSVERST_NEW?2
ZERO_ENDE9. . . . . . . . . . . . .  C  ADDR  1D0AH     R   SEG=?CO?MESSVERST_NEW?2
ZERO_N1 . . . . . . . . . . . . . .  C  ADDR  1A66H     R   SEG=?CO?MESSVERST_NEW?2
ZERO_N1_1 . . . . . . . . . . . . .  C  ADDR  1A83H     R   SEG=?CO?MESSVERST_NEW?2
ZERO_N2 . . . . . . . . . . . . . .  C  ADDR  1A85H     R   SEG=?CO?MESSVERST_NEW?2
ZERO_N20. . . . . . . . . . . . . .  C  ADDR  1AA0H     R   SEG=?CO?MESSVERST_NEW?2
ZERO_N200 . . . . . . . . . . . . .  C  ADDR  1A9AH     R   SEG=?CO?MESSVERST_NEW?2
ZERO_N3 . . . . . . . . . . . . . .  C  ADDR  1AA7H     R   SEG=?CO?MESSVERST_NEW?2
ZERO_N4 . . . . . . . . . . . . . .  C  ADDR  1AAAH     R   SEG=?CO?MESSVERST_NEW?2
ZERO_N5 . . . . . . . . . . . . . .  C  ADDR  1AB8H     R   SEG=?CO?MESSVERST_NEW?2
ZERO_N6 . . . . . . . . . . . . . .  C  ADDR  1ABAH     R   SEG=?CO?MESSVERST_NEW?2
ZERO_N8 . . . . . . . . . . . . . .  C  ADDR  1ACCH     R   SEG=?CO?MESSVERST_NEW?2
ZERO_P1 . . . . . . . . . . . . . .  C  ADDR  19FCH     R   SEG=?CO?MESSVERST_NEW?2
ZERO_P2 . . . . . . . . . . . . . .  C  ADDR  1A1DH     R   SEG=?CO?MESSVERST_NEW?2
ZERO_P20. . . . . . . . . . . . . .  C  ADDR  1A38H     R   SEG=?CO?MESSVERST_NEW?2
ZERO_P200 . . . . . . . . . . . . .  C  ADDR  1A32H     R   SEG=?CO?MESSVERST_NEW?2
ZERO_P3 . . . . . . . . . . . . . .  C  ADDR  1A3FH     R   SEG=?CO?MESSVERST_NEW?2
ZERO_P4 . . . . . . . . . . . . . .  C  ADDR  1A42H     R   SEG=?CO?MESSVERST_NEW?2
ZERO_P5 . . . . . . . . . . . . . .  C  ADDR  1A50H     R   SEG=?CO?MESSVERST_NEW?2
ZERO_P6 . . . . . . . . . . . . . .  C  ADDR  1A52H     R   SEG=?CO?MESSVERST_NEW?2
ZERO_P8 . . . . . . . . . . . . . .  C  ADDR  1A64H     R   SEG=?CO?MESSVERST_NEW?2
ZERO_SLOW . . . . . . . . . . . . .  C  ADDR  1ACEH     R   SEG=?CO?MESSVERST_NEW?2
ZERO_SLOW0. . . . . . . . . . . . .  C  ADDR  1AD7H     R   SEG=?CO?MESSVERST_NEW?2
ZERO_SLOW1. . . . . . . . . . . . .  C  ADDR  1AECH     R   SEG=?CO?MESSVERST_NEW?2
ZERO_SLOW10 . . . . . . . . . . . .  C  ADDR  1B21H     R   SEG=?CO?MESSVERST_NEW?2
ZERO_SLOW12 . . . . . . . . . . . .  C  ADDR  1B7FH     R   SEG=?CO?MESSVERST_NEW?2
ZERO_SLOW13 . . . . . . . . . . . .  C  ADDR  1B90H     R   SEG=?CO?MESSVERST_NEW?2
ZERO_SLOW14 . . . . . . . . . . . .  C  ADDR  1B94H     R   SEG=?CO?MESSVERST_NEW?2
ZERO_SLOW15 . . . . . . . . . . . .  C  ADDR  1B9BH     R   SEG=?CO?MESSVERST_NEW?2
ZERO_SLOW16 . . . . . . . . . . . .  C  ADDR  1BA5H     R   SEG=?CO?MESSVERST_NEW?2
ZERO_SLOW17 . . . . . . . . . . . .  C  ADDR  1BB4H     R   SEG=?CO?MESSVERST_NEW?2
ZERO_SLOW18 . . . . . . . . . . . .  C  ADDR  1BB7H     R   SEG=?CO?MESSVERST_NEW?2
ZERO_SLOW19 . . . . . . . . . . . .  C  ADDR  1BC1H     R   SEG=?CO?MESSVERST_NEW?2
ZERO_SLOW2. . . . . . . . . . . . .  C  ADDR  1AF7H     R   SEG=?CO?MESSVERST_NEW?2
AX51 MACRO ASSEMBLER  MESSVERST_NEW                                                         01/07/24 00:14:01 PAGE   141

ZERO_SLOW20 . . . . . . . . . . . .  C  ADDR  1BC4H     R   SEG=?CO?MESSVERST_NEW?2
ZERO_SLOW21 . . . . . . . . . . . .  C  ADDR  1BCBH     R   SEG=?CO?MESSVERST_NEW?2
ZERO_SLOW22 . . . . . . . . . . . .  C  ADDR  1BCFH     R   SEG=?CO?MESSVERST_NEW?2
ZERO_SLOW23 . . . . . . . . . . . .  C  ADDR  1BE0H     R   SEG=?CO?MESSVERST_NEW?2
ZERO_SLOW24 . . . . . . . . . . . .  C  ADDR  1BE6H     R   SEG=?CO?MESSVERST_NEW?2
ZERO_SLOW25 . . . . . . . . . . . .  C  ADDR  1BEDH     R   SEG=?CO?MESSVERST_NEW?2
ZERO_SLOW26 . . . . . . . . . . . .  C  ADDR  1BF0H     R   SEG=?CO?MESSVERST_NEW?2
ZERO_SLOW3. . . . . . . . . . . . .  C  ADDR  1B02H     R   SEG=?CO?MESSVERST_NEW?2
ZERO_SLOW30 . . . . . . . . . . . .  C  ADDR  1C01H     R   SEG=?CO?MESSVERST_NEW?2
ZERO_SLOW31 . . . . . . . . . . . .  C  ADDR  1C03H     R   SEG=?CO?MESSVERST_NEW?2
ZERO_SLOW32 . . . . . . . . . . . .  C  ADDR  1C07H     R   SEG=?CO?MESSVERST_NEW?2
ZERO_SLOW33 . . . . . . . . . . . .  C  ADDR  1C09H     R   SEG=?CO?MESSVERST_NEW?2
ZERO_SLOW34 . . . . . . . . . . . .  C  ADDR  1C1AH     R   SEG=?CO?MESSVERST_NEW?2
ZERO_SLOW35 . . . . . . . . . . . .  C  ADDR  1C20H     R   SEG=?CO?MESSVERST_NEW?2
ZERO_SLOW36 . . . . . . . . . . . .  C  ADDR  1C27H     R   SEG=?CO?MESSVERST_NEW?2
ZERO_SLOW37 . . . . . . . . . . . .  C  ADDR  1C2AH     R   SEG=?CO?MESSVERST_NEW?2
ZERO_SLOW4. . . . . . . . . . . . .  C  ADDR  1B0DH     R   SEG=?CO?MESSVERST_NEW?2
ZERO_SLOW5. . . . . . . . . . . . .  C  ADDR  1B18H     R   SEG=?CO?MESSVERST_NEW?2
ZWEITE_ZEILE. . . . . . . . . . . .  B  ADDR  0004H.2   R   SEG=FLAGS2


REGISTER BANK(S) USED: 0 


ASSEMBLY COMPLETE.  0 WARNING(S), 0 ERROR(S).
